

Microchip MPLAB XC8 Assembler V2.31 build 20201012212115 
                                                                                               Thu Jun 03 17:49:12 2021

Microchip MPLAB XC8 C Compiler v2.31 (Free license) build 20201012212115 Og1 
     1                           	processor	16F887
     2                           	pagewidth 120
     3                           	opt	flic
     4                           	psect	strings,global,class=STRING,delta=2,noexec
     5                           	psect	stringtext,global,reloc=256,class=STRCODE,delta=2,noexec
     6                           	psect	cinit,global,class=CODE,merge=1,delta=2
     7                           	psect	bssCOMMON,global,class=COMMON,space=1,delta=1,noexec
     8                           	psect	bssBANK0,global,class=BANK0,space=1,delta=1,noexec
     9                           	psect	cstackCOMMON,global,class=COMMON,space=1,delta=1,noexec
    10                           	psect	cstackBANK0,global,class=BANK0,space=1,delta=1,noexec
    11                           	psect	maintext,global,class=CODE,split=1,delta=2
    12                           	psect	text1,local,class=CODE,merge=1,delta=2
    13                           	psect	text2,local,class=CODE,merge=1,delta=2
    14                           	psect	text3,local,class=CODE,merge=1,delta=2
    15                           	psect	text4,local,class=CODE,merge=1,delta=2
    16                           	psect	text5,local,class=CODE,merge=1,delta=2
    17                           	psect	text6,local,class=CODE,merge=1,delta=2
    18                           	psect	text7,local,class=CODE,merge=1,delta=2
    19                           	psect	text8,local,class=CODE,merge=1,delta=2
    20                           	psect	text9,local,class=CODE,merge=1,delta=2
    21                           	psect	text10,local,class=CODE,merge=1,delta=2
    22                           	psect	text11,local,class=CODE,merge=1,delta=2
    23                           	psect	text12,local,class=CODE,merge=1,delta=2
    24                           	psect	text13,local,class=CODE,merge=1,delta=2
    25                           	psect	text14,local,class=CODE,merge=1,delta=2
    26                           	psect	text15,local,class=CODE,merge=1,delta=2
    27                           	psect	text16,local,class=CODE,merge=1,delta=2
    28                           	psect	text17,local,class=CODE,merge=1,delta=2
    29                           	psect	text18,local,class=CODE,merge=1,delta=2,group=1
    30                           	psect	text19,local,class=CODE,merge=1,delta=2
    31                           	psect	text20,local,class=CODE,merge=1,delta=2
    32                           	psect	text21,local,class=CODE,merge=1,delta=2
    33                           	psect	text22,local,class=CODE,merge=1,delta=2
    34                           	psect	text23,local,class=CODE,merge=1,delta=2,group=2
    35                           	psect	text24,local,class=CODE,merge=1,delta=2
    36                           	psect	intentry,global,class=CODE,delta=2
    37                           	psect	text25,local,class=CODE,merge=1,delta=2
    38                           	psect	text26,local,class=CODE,merge=1,delta=2
    39                           	psect	text27,local,class=CODE,merge=1,delta=2
    40                           	psect	text28,local,class=CODE,merge=1,delta=2
    41                           	psect	text29,local,class=CODE,merge=1,delta=2
    42                           	psect	text30,local,class=CODE,merge=1,delta=2
    43                           	psect	text31,local,class=CODE,merge=1,delta=2
    44                           	psect	text32,local,class=CODE,merge=1,delta=2
    45                           	psect	text33,local,class=CODE,merge=1,delta=2
    46                           	psect	text34,local,class=CODE,merge=1,delta=2
    47                           	psect	text35,local,class=CODE,merge=1,delta=2
    48                           	psect	text36,local,class=CODE,merge=1,delta=2
    49                           	psect	text37,local,class=CODE,merge=1,delta=2
    50                           	psect	text38,local,class=CODE,merge=1,delta=2
    51                           	psect	text39,local,class=CODE,merge=1,delta=2
    52                           	psect	text40,local,class=CODE,merge=1,delta=2
    53                           	psect	text41,local,class=CODE,merge=1,delta=2
    54                           	psect	text42,local,class=CODE,merge=1,delta=2
    55                           	psect	text43,local,class=CODE,merge=1,delta=2
    56                           	psect	text44,local,class=CODE,merge=1,delta=2
    57                           	psect	text45,local,class=CODE,merge=1,delta=2
    58                           	psect	config,global,abs,ovrld,class=CONFIG,space=4,delta=2,noexec
    59                           	dabs	1,0x7E,2
    60  0000                     
    61                           ; Version 2.20
    62                           ; Generated 12/02/2020 GMT
    63                           ; 
    64                           ; Copyright © 2020, Microchip Technology Inc. and its subsidiaries ("Microchip")
    65                           ; All rights reserved.
    66                           ; 
    67                           ; This software is developed by Microchip Technology Inc. and its subsidiaries ("Microch
      +                          ip").
    68                           ; 
    69                           ; Redistribution and use in source and binary forms, with or without modification, are
    70                           ; permitted provided that the following conditions are met:
    71                           ; 
    72                           ;     1. Redistributions of source code must retain the above copyright notice, this lis
      +                          t of
    73                           ;        conditions and the following disclaimer.
    74                           ; 
    75                           ;     2. Redistributions in binary form must reproduce the above copyright notice, this 
      +                          list
    76                           ;        of conditions and the following disclaimer in the documentation and/or other
    77                           ;        materials provided with the distribution.
    78                           ; 
    79                           ;     3. Microchip's name may not be used to endorse or promote products derived from th
      +                          is
    80                           ;        software without specific prior written permission.
    81                           ; 
    82                           ; THIS SOFTWARE IS PROVIDED BY MICROCHIP "AS IS" AND ANY EXPRESS OR IMPLIED WARRANTIES,
    83                           ; INCLUDING, BUT NOT LIMITED TO, THE IMPLIED WARRANTIES OF MERCHANTABILITY AND FITNESS F
      +                          OR
    84                           ; PURPOSE ARE DISCLAIMED.  IN NO EVENT SHALL MICROCHIP BE LIABLE FOR ANY DIRECT, INDIREC
      +                          T,
    85                           ; INCIDENTAL, SPECIAL, EXEMPLARY, OR CONSEQUENTIAL DAMAGES (INCLUDING BUT NOT LIMITED TO
    86                           ; PROCUREMENT OF SUBSTITUTE GOODS OR SERVICES; LOSS OF USE, DATA OR PROFITS; OR BUSINESS
    87                           ; INTERRUPTION) HOWSOEVER CAUSED AND ON ANY THEORY OF LIABILITY, WHETHER IN CONTRACT, ST
      +                          RICT
    88                           ; LIABILITY, OR TORT (INCLUDING NEGLIGENCE OR OTHERWISE) ARISING IN ANY WAY OUT OF THE U
      +                          SE OF
    89                           ; THIS SOFTWARE, EVEN IF ADVISED OF THE POSSIBILITY OF SUCH DAMAGE.
    90                           ; 
    91                           ; 
    92                           ; Code-generator required, PIC16F887 Definitions
    93                           ; 
    94                           ; SFR Addresses
    95  0000                     	;# 
    96  0001                     	;# 
    97  0002                     	;# 
    98  0003                     	;# 
    99  0004                     	;# 
   100  0005                     	;# 
   101  0006                     	;# 
   102  0007                     	;# 
   103  0008                     	;# 
   104  0009                     	;# 
   105  000A                     	;# 
   106  000B                     	;# 
   107  000C                     	;# 
   108  000D                     	;# 
   109  000E                     	;# 
   110  000E                     	;# 
   111  000F                     	;# 
   112  0010                     	;# 
   113  0011                     	;# 
   114  0012                     	;# 
   115  0013                     	;# 
   116  0014                     	;# 
   117  0015                     	;# 
   118  0015                     	;# 
   119  0016                     	;# 
   120  0017                     	;# 
   121  0018                     	;# 
   122  0019                     	;# 
   123  001A                     	;# 
   124  001B                     	;# 
   125  001B                     	;# 
   126  001C                     	;# 
   127  001D                     	;# 
   128  001E                     	;# 
   129  001F                     	;# 
   130  0081                     	;# 
   131  0085                     	;# 
   132  0086                     	;# 
   133  0087                     	;# 
   134  0088                     	;# 
   135  0089                     	;# 
   136  008C                     	;# 
   137  008D                     	;# 
   138  008E                     	;# 
   139  008F                     	;# 
   140  0090                     	;# 
   141  0091                     	;# 
   142  0092                     	;# 
   143  0093                     	;# 
   144  0093                     	;# 
   145  0093                     	;# 
   146  0094                     	;# 
   147  0095                     	;# 
   148  0096                     	;# 
   149  0097                     	;# 
   150  0098                     	;# 
   151  0099                     	;# 
   152  009A                     	;# 
   153  009B                     	;# 
   154  009C                     	;# 
   155  009D                     	;# 
   156  009E                     	;# 
   157  009F                     	;# 
   158  0105                     	;# 
   159  0107                     	;# 
   160  0108                     	;# 
   161  0109                     	;# 
   162  010C                     	;# 
   163  010C                     	;# 
   164  010D                     	;# 
   165  010E                     	;# 
   166  010F                     	;# 
   167  0185                     	;# 
   168  0187                     	;# 
   169  0188                     	;# 
   170  0189                     	;# 
   171  018C                     	;# 
   172  018D                     	;# 
   173  0000                     	;# 
   174  0001                     	;# 
   175  0002                     	;# 
   176  0003                     	;# 
   177  0004                     	;# 
   178  0005                     	;# 
   179  0006                     	;# 
   180  0007                     	;# 
   181  0008                     	;# 
   182  0009                     	;# 
   183  000A                     	;# 
   184  000B                     	;# 
   185  000C                     	;# 
   186  000D                     	;# 
   187  000E                     	;# 
   188  000E                     	;# 
   189  000F                     	;# 
   190  0010                     	;# 
   191  0011                     	;# 
   192  0012                     	;# 
   193  0013                     	;# 
   194  0014                     	;# 
   195  0015                     	;# 
   196  0015                     	;# 
   197  0016                     	;# 
   198  0017                     	;# 
   199  0018                     	;# 
   200  0019                     	;# 
   201  001A                     	;# 
   202  001B                     	;# 
   203  001B                     	;# 
   204  001C                     	;# 
   205  001D                     	;# 
   206  001E                     	;# 
   207  001F                     	;# 
   208  0081                     	;# 
   209  0085                     	;# 
   210  0086                     	;# 
   211  0087                     	;# 
   212  0088                     	;# 
   213  0089                     	;# 
   214  008C                     	;# 
   215  008D                     	;# 
   216  008E                     	;# 
   217  008F                     	;# 
   218  0090                     	;# 
   219  0091                     	;# 
   220  0092                     	;# 
   221  0093                     	;# 
   222  0093                     	;# 
   223  0093                     	;# 
   224  0094                     	;# 
   225  0095                     	;# 
   226  0096                     	;# 
   227  0097                     	;# 
   228  0098                     	;# 
   229  0099                     	;# 
   230  009A                     	;# 
   231  009B                     	;# 
   232  009C                     	;# 
   233  009D                     	;# 
   234  009E                     	;# 
   235  009F                     	;# 
   236  0105                     	;# 
   237  0107                     	;# 
   238  0108                     	;# 
   239  0109                     	;# 
   240  010C                     	;# 
   241  010C                     	;# 
   242  010D                     	;# 
   243  010E                     	;# 
   244  010F                     	;# 
   245  0185                     	;# 
   246  0187                     	;# 
   247  0188                     	;# 
   248  0189                     	;# 
   249  018C                     	;# 
   250  018D                     	;# 
   251  0009                     _PORTE	set	9
   252  0008                     _PORTD	set	8
   253  0007                     _PORTC	set	7
   254  0006                     _PORTB	set	6
   255  0005                     _PORTA	set	5
   256  0018                     _RCSTAbits	set	24
   257  0012                     _T2CONbits	set	18
   258  000C                     _PIR1bits	set	12
   259  001D                     _CCP2CONbits	set	29
   260  0017                     _CCP1CONbits	set	23
   261  001A                     _RCREG	set	26
   262  0019                     _TXREG	set	25
   263  001B                     _CCPR2L	set	27
   264  0015                     _CCPR1L	set	21
   265  000D                     _PIR2bits	set	13
   266  000B                     _INTCONbits	set	11
   267  001E                     _ADRESH	set	30
   268  001F                     _ADCON0bits	set	31
   269  0065                     _RCIF	set	101
   270  0064                     _TXIF	set	100
   271  0042                     _RD2	set	66
   272  0041                     _RD1	set	65
   273  0040                     _RD0	set	64
   274  0034                     _RB4	set	52
   275  0035                     _RB5	set	53
   276  0036                     _RB6	set	54
   277  0033                     _RB3	set	51
   278  0058                     _RBIF	set	88
   279  004A                     _RE2	set	74
   280  0049                     _RE1	set	73
   281  0048                     _RE0	set	72
   282  0031                     _RB1	set	49
   283  0030                     _RB0	set	48
   284  0032                     _RB2	set	50
   285  0066                     _ADIF	set	102
   286  0098                     _TXSTAbits	set	152
   287  009A                     _SPBRGH	set	154
   288  0099                     _SPBRG	set	153
   289  0096                     _IOCBbits	set	150
   290  008C                     _PIE1bits	set	140
   291  0092                     _PR2	set	146
   292  0087                     _TRISCbits	set	135
   293  009F                     _ADCON1bits	set	159
   294  008F                     _OSCCONbits	set	143
   295  0095                     _WPUBbits	set	149
   296  0081                     _OPTION_REGbits	set	129
   297  0088                     _TRISDbits	set	136
   298  0089                     _TRISEbits	set	137
   299  0085                     _TRISAbits	set	133
   300  0086                     _TRISBbits	set	134
   301  010C                     _EEDATA	set	268
   302  010C                     _EEDAT	set	268
   303  010D                     _EEADR	set	269
   304  0187                     _BAUDCTLbits	set	391
   305  0189                     _ANSELH	set	393
   306  0188                     _ANSELbits	set	392
   307  018D                     _EECON2	set	397
   308  018C                     _EECON1bits	set	396
   309                           
   310                           	psect	strings
   311  094A                     __pstrings:
   312  094A                     stringtab:
   313  094A                     __stringtab:
   314                           
   315                           ;	String table - string pointers are 2 bytes each
   316  094A  1BFF               	btfsc	btemp+1,7
   317  094B  2954               	ljmp	stringcode
   318  094C  1383               	bcf	3,7
   319  094D  187F               	btfsc	btemp+1,0
   320  094E  1783               	bsf	3,7
   321  094F  0800               	movf	0,w
   322  0950  0A84               	incf	4,f
   323  0951  1903               	skipnz
   324  0952  0AFF               	incf	btemp+1,f
   325  0953  0008               	return
   326  0954                     stringcode:
   327  0954  087F               	movf	btemp+1,w
   328  0955  397F               	andlw	127
   329  0956  008A               	movwf	10
   330  0957  0804               	movf	4,w
   331  0958  0A84               	incf	4,f
   332  0959  1903               	skipnz
   333  095A  0AFF               	incf	btemp+1,f
   334  095B  0082               	movwf	2
   335  095C                     __stringbase:
   336  095C                     __end_of__stringtab:
   337                           
   338                           	psect	stringtext
   339  0800                     __pstringtext:
   340  0800                     STR_9:
   341  0800  340D               	retlw	13
   342  0801  3420               	retlw	32	;' '
   343  0802  3453               	retlw	83	;'S'
   344  0803  3465               	retlw	101	;'e'
   345  0804  346C               	retlw	108	;'l'
   346  0805  3465               	retlw	101	;'e'
   347  0806  3463               	retlw	99	;'c'
   348  0807  3463               	retlw	99	;'c'
   349  0808  3469               	retlw	105	;'i'
   350  0809  346F               	retlw	111	;'o'
   351  080A  346E               	retlw	110	;'n'
   352  080B  3465               	retlw	101	;'e'
   353  080C  3420               	retlw	32	;' '
   354  080D  3465               	retlw	101	;'e'
   355  080E  346E               	retlw	110	;'n'
   356  080F  3474               	retlw	116	;'t'
   357  0810  3472               	retlw	114	;'r'
   358  0811  3465               	retlw	101	;'e'
   359  0812  3420               	retlw	32	;' '
   360  0813  346C               	retlw	108	;'l'
   361  0814  346F               	retlw	111	;'o'
   362  0815  3473               	retlw	115	;'s'
   363  0816  3420               	retlw	32	;' '
   364  0817  3473               	retlw	115	;'s'
   365  0818  3469               	retlw	105	;'i'
   366  0819  3467               	retlw	103	;'g'
   367  081A  3475               	retlw	117	;'u'
   368  081B  3469               	retlw	105	;'i'
   369  081C  3465               	retlw	101	;'e'
   370  081D  346E               	retlw	110	;'n'
   371  081E  3474               	retlw	116	;'t'
   372  081F  3465               	retlw	101	;'e'
   373  0820  3420               	retlw	32	;' '
   374  0821  3470               	retlw	112	;'p'
   375  0822  3461               	retlw	97	;'a'
   376  0823  3472               	retlw	114	;'r'
   377  0824  3461               	retlw	97	;'a'
   378  0825  3420               	retlw	32	;' '
   379  0826  3464               	retlw	100	;'d'
   380  0827  3461               	retlw	97	;'a'
   381  0828  3472               	retlw	114	;'r'
   382  0829  3420               	retlw	32	;' '
   383  082A  346C               	retlw	108	;'l'
   384  082B  3461               	retlw	97	;'a'
   385  082C  3420               	retlw	32	;' '
   386  082D  3470               	retlw	112	;'p'
   387  082E  346F               	retlw	111	;'o'
   388  082F  3473               	retlw	115	;'s'
   389  0830  3469               	retlw	105	;'i'
   390  0831  3463               	retlw	99	;'c'
   391  0832  3469               	retlw	105	;'i'
   392  0833  346F               	retlw	111	;'o'
   393  0834  346E               	retlw	110	;'n'
   394  0835  343A               	retlw	58	;':'
   395  0836  3400               	retlw	0
   396  0837                     STR_27:
   397  0837  340D               	retlw	13
   398  0838  3420               	retlw	32	;' '
   399  0839  3448               	retlw	72	;'H'
   400  083A  3461               	retlw	97	;'a'
   401  083B  3463               	retlw	99	;'c'
   402  083C  3469               	retlw	105	;'i'
   403  083D  3461               	retlw	97	;'a'
   404  083E  3420               	retlw	32	;' '
   405  083F  3464               	retlw	100	;'d'
   406  0840  346F               	retlw	111	;'o'
   407  0841  346E               	retlw	110	;'n'
   408  0842  3464               	retlw	100	;'d'
   409  0843  3465               	retlw	101	;'e'
   410  0844  3420               	retlw	32	;' '
   411  0845  3464               	retlw	100	;'d'
   412  0846  3465               	retlw	101	;'e'
   413  0847  3473               	retlw	115	;'s'
   414  0848  3465               	retlw	101	;'e'
   415  0849  3461               	retlw	97	;'a'
   416  084A  3420               	retlw	32	;' '
   417  084B  346D               	retlw	109	;'m'
   418  084C  346F               	retlw	111	;'o'
   419  084D  3476               	retlw	118	;'v'
   420  084E  3465               	retlw	101	;'e'
   421  084F  3472               	retlw	114	;'r'
   422  0850  3420               	retlw	32	;' '
   423  0851  3465               	retlw	101	;'e'
   424  0852  346C               	retlw	108	;'l'
   425  0853  3420               	retlw	32	;' '
   426  0854  346D               	retlw	109	;'m'
   427  0855  346F               	retlw	111	;'o'
   428  0856  3474               	retlw	116	;'t'
   429  0857  346F               	retlw	111	;'o'
   430  0858  3472               	retlw	114	;'r'
   431  0859  343F               	retlw	63	;'?'
   432  085A  3420               	retlw	32	;' '
   433  085B  340D               	retlw	13
   434  085C  3400               	retlw	0
   435  085D                     STR_5:
   436  085D  340D               	retlw	13
   437  085E  3420               	retlw	32	;' '
   438  085F  34C2               	retlw	-62
   439  0860  34BF               	retlw	-65
   440  0861  3443               	retlw	67	;'C'
   441  0862  3475               	retlw	117	;'u'
   442  0863  3461               	retlw	97	;'a'
   443  0864  346C               	retlw	108	;'l'
   444  0865  3420               	retlw	32	;' '
   445  0866  3464               	retlw	100	;'d'
   446  0867  3465               	retlw	101	;'e'
   447  0868  3420               	retlw	32	;' '
   448  0869  346C               	retlw	108	;'l'
   449  086A  346F               	retlw	111	;'o'
   450  086B  3473               	retlw	115	;'s'
   451  086C  3420               	retlw	32	;' '
   452  086D  3473               	retlw	115	;'s'
   453  086E  3465               	retlw	101	;'e'
   454  086F  3472               	retlw	114	;'r'
   455  0870  3476               	retlw	118	;'v'
   456  0871  346F               	retlw	111	;'o'
   457  0872  3473               	retlw	115	;'s'
   458  0873  3420               	retlw	32	;' '
   459  0874  3464               	retlw	100	;'d'
   460  0875  3465               	retlw	101	;'e'
   461  0876  3473               	retlw	115	;'s'
   462  0877  3465               	retlw	101	;'e'
   463  0878  3461               	retlw	97	;'a'
   464  0879  3420               	retlw	32	;' '
   465  087A  346D               	retlw	109	;'m'
   466  087B  346F               	retlw	111	;'o'
   467  087C  3476               	retlw	118	;'v'
   468  087D  3465               	retlw	101	;'e'
   469  087E  3472               	retlw	114	;'r'
   470  087F  343F               	retlw	63	;'?'
   471  0880  340D               	retlw	13
   472  0881  3400               	retlw	0
   473  0882                     STR_1:
   474  0882  340D               	retlw	13
   475  0883  3420               	retlw	32	;' '
   476  0884  3451               	retlw	81	;'Q'
   477  0885  3475               	retlw	117	;'u'
   478  0886  3465               	retlw	101	;'e'
   479  0887  3420               	retlw	32	;' '
   480  0888  3461               	retlw	97	;'a'
   481  0889  3463               	retlw	99	;'c'
   482  088A  3463               	retlw	99	;'c'
   483  088B  3469               	retlw	105	;'i'
   484  088C  346F               	retlw	111	;'o'
   485  088D  346E               	retlw	110	;'n'
   486  088E  3420               	retlw	32	;' '
   487  088F  3464               	retlw	100	;'d'
   488  0890  3465               	retlw	101	;'e'
   489  0891  3473               	retlw	115	;'s'
   490  0892  3465               	retlw	101	;'e'
   491  0893  3461               	retlw	97	;'a'
   492  0894  3420               	retlw	32	;' '
   493  0895  3465               	retlw	101	;'e'
   494  0896  346A               	retlw	106	;'j'
   495  0897  3465               	retlw	101	;'e'
   496  0898  3463               	retlw	99	;'c'
   497  0899  3475               	retlw	117	;'u'
   498  089A  3474               	retlw	116	;'t'
   499  089B  3461               	retlw	97	;'a'
   500  089C  3472               	retlw	114	;'r'
   501  089D  3420               	retlw	32	;' '
   502  089E  340D               	retlw	13
   503  089F  3400               	retlw	0
   504  08A0                     STR_2:
   505  08A0  3428               	retlw	40	;'('
   506  08A1  3431               	retlw	49	;'1'
   507  08A2  3429               	retlw	41	;')'
   508  08A3  3420               	retlw	32	;' '
   509  08A4  344D               	retlw	77	;'M'
   510  08A5  346F               	retlw	111	;'o'
   511  08A6  3476               	retlw	118	;'v'
   512  08A7  3465               	retlw	101	;'e'
   513  08A8  3472               	retlw	114	;'r'
   514  08A9  3420               	retlw	32	;' '
   515  08AA  3473               	retlw	115	;'s'
   516  08AB  3465               	retlw	101	;'e'
   517  08AC  3472               	retlw	114	;'r'
   518  08AD  3476               	retlw	118	;'v'
   519  08AE  346F               	retlw	111	;'o'
   520  08AF  3473               	retlw	115	;'s'
   521  08B0  3420               	retlw	32	;' '
   522  08B1  340D               	retlw	13
   523  08B2  3400               	retlw	0
   524  08B3                     STR_3:
   525  08B3  3428               	retlw	40	;'('
   526  08B4  3432               	retlw	50	;'2'
   527  08B5  3429               	retlw	41	;')'
   528  08B6  3420               	retlw	32	;' '
   529  08B7  344D               	retlw	77	;'M'
   530  08B8  346F               	retlw	111	;'o'
   531  08B9  3476               	retlw	118	;'v'
   532  08BA  3465               	retlw	101	;'e'
   533  08BB  3472               	retlw	114	;'r'
   534  08BC  3420               	retlw	32	;' '
   535  08BD  346D               	retlw	109	;'m'
   536  08BE  346F               	retlw	111	;'o'
   537  08BF  3474               	retlw	116	;'t'
   538  08C0  346F               	retlw	111	;'o'
   539  08C1  3472               	retlw	114	;'r'
   540  08C2  3420               	retlw	32	;' '
   541  08C3  340D               	retlw	13
   542  08C4  3400               	retlw	0
   543  08C5                     STR_29:
   544  08C5  340D               	retlw	13
   545  08C6  3420               	retlw	32	;' '
   546  08C7  3432               	retlw	50	;'2'
   547  08C8  343A               	retlw	58	;':'
   548  08C9  3420               	retlw	32	;' '
   549  08CA  3449               	retlw	73	;'I'
   550  08CB  347A               	retlw	122	;'z'
   551  08CC  3471               	retlw	113	;'q'
   552  08CD  3475               	retlw	117	;'u'
   553  08CE  3469               	retlw	105	;'i'
   554  08CF  3465               	retlw	101	;'e'
   555  08D0  3472               	retlw	114	;'r'
   556  08D1  3464               	retlw	100	;'d'
   557  08D2  3461               	retlw	97	;'a'
   558  08D3  3400               	retlw	0
   559  08D4                     STR_6:
   560  08D4  340D               	retlw	13
   561  08D5  3420               	retlw	32	;' '
   562  08D6  3461               	retlw	97	;'a'
   563  08D7  342E               	retlw	46	;'.'
   564  08D8  3420               	retlw	32	;' '
   565  08D9  3453               	retlw	83	;'S'
   566  08DA  3465               	retlw	101	;'e'
   567  08DB  3472               	retlw	114	;'r'
   568  08DC  3476               	retlw	118	;'v'
   569  08DD  346F               	retlw	111	;'o'
   570  08DE  3420               	retlw	32	;' '
   571  08DF  3431               	retlw	49	;'1'
   572  08E0  3400               	retlw	0
   573  08E1                     STR_7:
   574  08E1  340D               	retlw	13
   575  08E2  3420               	retlw	32	;' '
   576  08E3  3462               	retlw	98	;'b'
   577  08E4  342E               	retlw	46	;'.'
   578  08E5  3420               	retlw	32	;' '
   579  08E6  3453               	retlw	83	;'S'
   580  08E7  3465               	retlw	101	;'e'
   581  08E8  3472               	retlw	114	;'r'
   582  08E9  3476               	retlw	118	;'v'
   583  08EA  346F               	retlw	111	;'o'
   584  08EB  3420               	retlw	32	;' '
   585  08EC  3432               	retlw	50	;'2'
   586  08ED  3400               	retlw	0
   587  08EE                     STR_8:
   588  08EE  340D               	retlw	13
   589  08EF  3420               	retlw	32	;' '
   590  08F0  3463               	retlw	99	;'c'
   591  08F1  342E               	retlw	46	;'.'
   592  08F2  3420               	retlw	32	;' '
   593  08F3  3453               	retlw	83	;'S'
   594  08F4  3465               	retlw	101	;'e'
   595  08F5  3472               	retlw	114	;'r'
   596  08F6  3476               	retlw	118	;'v'
   597  08F7  346F               	retlw	111	;'o'
   598  08F8  3420               	retlw	32	;' '
   599  08F9  3433               	retlw	51	;'3'
   600  08FA  3400               	retlw	0
   601  08FB                     STR_28:
   602  08FB  340D               	retlw	13
   603  08FC  3420               	retlw	32	;' '
   604  08FD  3431               	retlw	49	;'1'
   605  08FE  343A               	retlw	58	;':'
   606  08FF  3420               	retlw	32	;' '
   607  0900  3444               	retlw	68	;'D'
   608  0901  3465               	retlw	101	;'e'
   609  0902  3472               	retlw	114	;'r'
   610  0903  3465               	retlw	101	;'e'
   611  0904  3463               	retlw	99	;'c'
   612  0905  3468               	retlw	104	;'h'
   613  0906  3461               	retlw	97	;'a'
   614  0907  3400               	retlw	0
   615  0908                     STR_30:
   616  0908  340D               	retlw	13
   617  0909  3420               	retlw	32	;' '
   618  090A  3433               	retlw	51	;'3'
   619  090B  343A               	retlw	58	;':'
   620  090C  3420               	retlw	32	;' '
   621  090D  3444               	retlw	68	;'D'
   622  090E  3465               	retlw	101	;'e'
   623  090F  3474               	retlw	116	;'t'
   624  0910  3465               	retlw	101	;'e'
   625  0911  346E               	retlw	110	;'n'
   626  0912  3465               	retlw	101	;'e'
   627  0913  3472               	retlw	114	;'r'
   628  0914  3400               	retlw	0
   629  0915                     STR_11:
   630  0915  340D               	retlw	13
   631  0916  3420               	retlw	32	;' '
   632  0917  3432               	retlw	50	;'2'
   633  0918  343A               	retlw	58	;':'
   634  0919  3420               	retlw	32	;' '
   635  091A  342D               	retlw	45	;'-'
   636  091B  3439               	retlw	57	;'9'
   637  091C  3430               	retlw	48	;'0'
   638  091D  3420               	retlw	32	;' '
   639  091E  3400               	retlw	0
   640  091F                     STR_10:
   641  091F  340D               	retlw	13
   642  0920  3420               	retlw	32	;' '
   643  0921  3431               	retlw	49	;'1'
   644  0922  343A               	retlw	58	;':'
   645  0923  3420               	retlw	32	;' '
   646  0924  342D               	retlw	45	;'-'
   647  0925  3434               	retlw	52	;'4'
   648  0926  3435               	retlw	53	;'5'
   649  0927  3420               	retlw	32	;' '
   650  0928  3400               	retlw	0
   651  0929                     STR_13:
   652  0929  340D               	retlw	13
   653  092A  3420               	retlw	32	;' '
   654  092B  3434               	retlw	52	;'4'
   655  092C  343A               	retlw	58	;':'
   656  092D  3420               	retlw	32	;' '
   657  092E  3439               	retlw	57	;'9'
   658  092F  3430               	retlw	48	;'0'
   659  0930  3420               	retlw	32	;' '
   660  0931  3400               	retlw	0
   661  0932                     STR_14:
   662  0932  340D               	retlw	13
   663  0933  3420               	retlw	32	;' '
   664  0934  3435               	retlw	53	;'5'
   665  0935  343A               	retlw	58	;':'
   666  0936  3420               	retlw	32	;' '
   667  0937  3434               	retlw	52	;'4'
   668  0938  3435               	retlw	53	;'5'
   669  0939  3420               	retlw	32	;' '
   670  093A  3400               	retlw	0
   671  093B                     STR_12:
   672  093B  340D               	retlw	13
   673  093C  3420               	retlw	32	;' '
   674  093D  3433               	retlw	51	;'3'
   675  093E  343A               	retlw	58	;':'
   676  093F  3420               	retlw	32	;' '
   677  0940  3430               	retlw	48	;'0'
   678  0941  3420               	retlw	32	;' '
   679  0942  3400               	retlw	0
   680  0943                     STR_4:
   681  0943  3428               	retlw	40	;'('
   682  0944  3433               	retlw	51	;'3'
   683  0945  3429               	retlw	41	;')'
   684  0946  3420               	retlw	32	;' '
   685  0947  3420               	retlw	32	;' '
   686  0948  340D               	retlw	13
   687  0949  3400               	retlw	0
   688  093B                     
   689                           	psect	cinit
   690  0011                     start_initialization:	
   691                           ; #config settings
   692                           
   693  0011                     __initialization:
   694                           
   695                           ; Clear objects allocated to COMMON
   696  0011  01FB               	clrf	__pbssCOMMON& (0+127)
   697  0012  01FC               	clrf	(__pbssCOMMON+1)& (0+127)
   698  0013  01FD               	clrf	(__pbssCOMMON+2)& (0+127)
   699                           
   700                           ; Clear objects allocated to BANK0
   701  0014  1283               	bcf	3,5	;RP0=0, select bank0
   702  0015  1303               	bcf	3,6	;RP1=0, select bank0
   703  0016  01B3               	clrf	__pbssBANK0& (0+127)
   704  0017  01B4               	clrf	(__pbssBANK0+1)& (0+127)
   705  0018  01B5               	clrf	(__pbssBANK0+2)& (0+127)
   706  0019  01B6               	clrf	(__pbssBANK0+3)& (0+127)
   707  001A  01B7               	clrf	(__pbssBANK0+4)& (0+127)
   708  001B  01B8               	clrf	(__pbssBANK0+5)& (0+127)
   709  001C  01B9               	clrf	(__pbssBANK0+6)& (0+127)
   710  001D  01BA               	clrf	(__pbssBANK0+7)& (0+127)
   711  001E  01BB               	clrf	(__pbssBANK0+8)& (0+127)
   712  001F  01BC               	clrf	(__pbssBANK0+9)& (0+127)
   713  0020  01BD               	clrf	(__pbssBANK0+10)& (0+127)
   714  0021                     end_of_initialization:	
   715                           ;End of C runtime variable initialization code
   716                           
   717  0021                     __end_of__initialization:
   718  0021  0183               	clrf	3
   719  0022  120A  158A  2B7B   	ljmp	_main	;jump to C main() function
   720                           
   721                           	psect	bssCOMMON
   722  007B                     __pbssCOMMON:
   723  007B                     _pot4:
   724  007B                     	ds	1
   725  007C                     _pot3:
   726  007C                     	ds	1
   727  007D                     _pot2:
   728  007D                     	ds	1
   729                           
   730                           	psect	bssBANK0
   731  0033                     __pbssBANK0:
   732  0033                     _puerto_b:
   733  0033                     	ds	1
   734  0034                     _puerto_a:
   735  0034                     	ds	1
   736  0035                     _estado_motor_nuevo:
   737  0035                     	ds	1
   738  0036                     _estado_motor:
   739  0036                     	ds	1
   740  0037                     _pot4_nuevo:
   741  0037                     	ds	1
   742  0038                     _pot3_nuevo:
   743  0038                     	ds	1
   744  0039                     _pot2_nuevo:
   745  0039                     	ds	1
   746  003A                     _valor:
   747  003A                     	ds	1
   748  003B                     _contador:
   749  003B                     	ds	1
   750  003C                     _direccion:
   751  003C                     	ds	1
   752  003D                     _motor:
   753  003D                     	ds	1
   754                           
   755                           	psect	cstackCOMMON
   756  0070                     __pcstackCOMMON:
   757  0070                     ?_motor_detenido:
   758  0070                     ?_motor_1:	
   759                           ; 1 bytes @ 0x0
   760                           
   761  0070                     ?_motor_2:	
   762                           ; 1 bytes @ 0x0
   763                           
   764  0070                     ?_servo_1_1:	
   765                           ; 1 bytes @ 0x0
   766                           
   767  0070                     ?_servo_1_2:	
   768                           ; 1 bytes @ 0x0
   769                           
   770  0070                     ?_servo_1_3:	
   771                           ; 1 bytes @ 0x0
   772                           
   773  0070                     ?_servo_1_4:	
   774                           ; 1 bytes @ 0x0
   775                           
   776  0070                     ?_servo_1_5:	
   777                           ; 1 bytes @ 0x0
   778                           
   779  0070                     ?_servo_2_1:	
   780                           ; 1 bytes @ 0x0
   781                           
   782  0070                     ?_servo_2_2:	
   783                           ; 1 bytes @ 0x0
   784                           
   785  0070                     ?_servo_2_3:	
   786                           ; 1 bytes @ 0x0
   787                           
   788  0070                     ?_servo_2_4:	
   789                           ; 1 bytes @ 0x0
   790                           
   791  0070                     ?_servo_2_5:	
   792                           ; 1 bytes @ 0x0
   793                           
   794  0070                     ?_servo_3_1:	
   795                           ; 1 bytes @ 0x0
   796                           
   797  0070                     ?_servo_3_2:	
   798                           ; 1 bytes @ 0x0
   799                           
   800  0070                     ?_servo_3_3:	
   801                           ; 1 bytes @ 0x0
   802                           
   803  0070                     ?_servo_3_4:	
   804                           ; 1 bytes @ 0x0
   805                           
   806  0070                     ?_servo_3_5:	
   807                           ; 1 bytes @ 0x0
   808                           
   809  0070                     ?_escribir_eeprom:	
   810                           ; 1 bytes @ 0x0
   811                           
   812  0070                     ?_leer_eeprom:	
   813                           ; 1 bytes @ 0x0
   814                           
   815  0070                     ??_leer_eeprom:	
   816                           ; 1 bytes @ 0x0
   817                           
   818  0070                     ?_setup:	
   819                           ; 1 bytes @ 0x0
   820                           
   821  0070                     ?_mensaje:	
   822                           ; 1 bytes @ 0x0
   823                           
   824  0070                     ?_isr:	
   825                           ; 1 bytes @ 0x0
   826                           
   827  0070                     ?_main:	
   828                           ; 1 bytes @ 0x0
   829                           
   830  0070                     ?_putch:	
   831                           ; 1 bytes @ 0x0
   832                           
   833  0070                     ?i1_servo_1_1:	
   834                           ; 1 bytes @ 0x0
   835                           
   836  0070                     ??i1_servo_1_1:	
   837                           ; 1 bytes @ 0x0
   838                           
   839  0070                     ?i1_servo_1_2:	
   840                           ; 1 bytes @ 0x0
   841                           
   842  0070                     ??i1_servo_1_2:	
   843                           ; 1 bytes @ 0x0
   844                           
   845  0070                     ?i1_servo_1_3:	
   846                           ; 1 bytes @ 0x0
   847                           
   848  0070                     ??i1_servo_1_3:	
   849                           ; 1 bytes @ 0x0
   850                           
   851  0070                     ?i1_servo_1_4:	
   852                           ; 1 bytes @ 0x0
   853                           
   854  0070                     ??i1_servo_1_4:	
   855                           ; 1 bytes @ 0x0
   856                           
   857  0070                     ?i1_servo_1_5:	
   858                           ; 1 bytes @ 0x0
   859                           
   860  0070                     ??i1_servo_1_5:	
   861                           ; 1 bytes @ 0x0
   862                           
   863  0070                     ?i1_servo_2_1:	
   864                           ; 1 bytes @ 0x0
   865                           
   866  0070                     ??i1_servo_2_1:	
   867                           ; 1 bytes @ 0x0
   868                           
   869  0070                     ?i1_servo_2_2:	
   870                           ; 1 bytes @ 0x0
   871                           
   872  0070                     ??i1_servo_2_2:	
   873                           ; 1 bytes @ 0x0
   874                           
   875  0070                     ?i1_servo_2_3:	
   876                           ; 1 bytes @ 0x0
   877                           
   878  0070                     ??i1_servo_2_3:	
   879                           ; 1 bytes @ 0x0
   880                           
   881  0070                     ?i1_servo_2_4:	
   882                           ; 1 bytes @ 0x0
   883                           
   884  0070                     ??i1_servo_2_4:	
   885                           ; 1 bytes @ 0x0
   886                           
   887  0070                     ?i1_servo_2_5:	
   888                           ; 1 bytes @ 0x0
   889                           
   890  0070                     ??i1_servo_2_5:	
   891                           ; 1 bytes @ 0x0
   892                           
   893  0070                     ?i1_servo_3_1:	
   894                           ; 1 bytes @ 0x0
   895                           
   896  0070                     ??i1_servo_3_1:	
   897                           ; 1 bytes @ 0x0
   898                           
   899  0070                     ?i1_servo_3_2:	
   900                           ; 1 bytes @ 0x0
   901                           
   902  0070                     ??i1_servo_3_2:	
   903                           ; 1 bytes @ 0x0
   904                           
   905  0070                     ?i1_servo_3_3:	
   906                           ; 1 bytes @ 0x0
   907                           
   908  0070                     ??i1_servo_3_3:	
   909                           ; 1 bytes @ 0x0
   910                           
   911  0070                     ?i1_servo_3_4:	
   912                           ; 1 bytes @ 0x0
   913                           
   914  0070                     ??i1_servo_3_4:	
   915                           ; 1 bytes @ 0x0
   916                           
   917  0070                     ?i1_servo_3_5:	
   918                           ; 1 bytes @ 0x0
   919                           
   920  0070                     ??i1_servo_3_5:	
   921                           ; 1 bytes @ 0x0
   922                           
   923  0070                     ?i1_motor_detenido:	
   924                           ; 1 bytes @ 0x0
   925                           
   926  0070                     ??i1_motor_detenido:	
   927                           ; 1 bytes @ 0x0
   928                           
   929  0070                     ?i1_motor_1:	
   930                           ; 1 bytes @ 0x0
   931                           
   932  0070                     ?i1_motor_2:	
   933                           ; 1 bytes @ 0x0
   934                           
   935  0070                     ?i1___awdiv:	
   936                           ; 1 bytes @ 0x0
   937                           
   938  0070                     escribir_eeprom@address:	
   939                           ; 2 bytes @ 0x0
   940                           
   941  0070                     i1___awdiv@divisor:	
   942                           ; 1 bytes @ 0x0
   943                           
   944                           
   945                           ; 2 bytes @ 0x0
   946  0070                     	ds	1
   947  0071                     ??_escribir_eeprom:
   948  0071                     escribir_eeprom@data:	
   949                           ; 1 bytes @ 0x1
   950                           
   951  0071                     leer_eeprom@address:	
   952                           ; 1 bytes @ 0x1
   953                           
   954                           
   955                           ; 1 bytes @ 0x1
   956  0071                     	ds	1
   957  0072                     leer_eeprom@data:
   958  0072                     i1___awdiv@dividend:	
   959                           ; 1 bytes @ 0x2
   960                           
   961                           
   962                           ; 2 bytes @ 0x2
   963  0072                     	ds	2
   964  0074                     ??i1___awdiv:
   965                           
   966                           ; 1 bytes @ 0x4
   967  0074                     	ds	1
   968  0075                     i1___awdiv@counter:
   969                           
   970                           ; 1 bytes @ 0x5
   971  0075                     	ds	1
   972  0076                     i1___awdiv@sign:
   973                           
   974                           ; 1 bytes @ 0x6
   975  0076                     	ds	1
   976  0077                     i1___awdiv@quotient:
   977                           
   978                           ; 2 bytes @ 0x7
   979  0077                     	ds	2
   980  0079                     ??i1_motor_1:
   981  0079                     ??i1_motor_2:	
   982                           ; 1 bytes @ 0x9
   983                           
   984                           
   985                           ; 1 bytes @ 0x9
   986  0079                     	ds	2
   987                           
   988                           	psect	cstackBANK0
   989  0020                     __pcstackBANK0:
   990  0020                     ??_isr:
   991                           
   992                           ; 1 bytes @ 0x0
   993  0020                     	ds	5
   994  0025                     ??_motor_detenido:
   995  0025                     ??_servo_1_1:	
   996                           ; 1 bytes @ 0x5
   997                           
   998  0025                     ??_servo_1_2:	
   999                           ; 1 bytes @ 0x5
  1000                           
  1001  0025                     ??_servo_1_3:	
  1002                           ; 1 bytes @ 0x5
  1003                           
  1004  0025                     ??_servo_1_4:	
  1005                           ; 1 bytes @ 0x5
  1006                           
  1007  0025                     ??_servo_1_5:	
  1008                           ; 1 bytes @ 0x5
  1009                           
  1010  0025                     ??_servo_2_1:	
  1011                           ; 1 bytes @ 0x5
  1012                           
  1013  0025                     ??_servo_2_2:	
  1014                           ; 1 bytes @ 0x5
  1015                           
  1016  0025                     ??_servo_2_3:	
  1017                           ; 1 bytes @ 0x5
  1018                           
  1019  0025                     ??_servo_2_4:	
  1020                           ; 1 bytes @ 0x5
  1021                           
  1022  0025                     ??_servo_2_5:	
  1023                           ; 1 bytes @ 0x5
  1024                           
  1025  0025                     ??_servo_3_1:	
  1026                           ; 1 bytes @ 0x5
  1027                           
  1028  0025                     ??_servo_3_2:	
  1029                           ; 1 bytes @ 0x5
  1030                           
  1031  0025                     ??_servo_3_3:	
  1032                           ; 1 bytes @ 0x5
  1033                           
  1034  0025                     ??_servo_3_4:	
  1035                           ; 1 bytes @ 0x5
  1036                           
  1037  0025                     ??_servo_3_5:	
  1038                           ; 1 bytes @ 0x5
  1039                           
  1040  0025                     ??_setup:	
  1041                           ; 1 bytes @ 0x5
  1042                           
  1043  0025                     ??_putch:	
  1044                           ; 1 bytes @ 0x5
  1045                           
  1046  0025                     ?___awdiv:	
  1047                           ; 1 bytes @ 0x5
  1048                           
  1049  0025                     putch@dato:	
  1050                           ; 2 bytes @ 0x5
  1051                           
  1052  0025                     ___awdiv@divisor:	
  1053                           ; 1 bytes @ 0x5
  1054                           
  1055                           
  1056                           ; 2 bytes @ 0x5
  1057  0025                     	ds	1
  1058  0026                     ?_printf:
  1059  0026                     printf@f:	
  1060                           ; 2 bytes @ 0x6
  1061                           
  1062                           
  1063                           ; 2 bytes @ 0x6
  1064  0026                     	ds	1
  1065  0027                     ___awdiv@dividend:
  1066                           
  1067                           ; 2 bytes @ 0x7
  1068  0027                     	ds	1
  1069  0028                     ??_printf:
  1070                           
  1071                           ; 1 bytes @ 0x8
  1072  0028                     	ds	1
  1073  0029                     ??___awdiv:
  1074                           
  1075                           ; 1 bytes @ 0x9
  1076  0029                     	ds	1
  1077  002A                     ___awdiv@counter:
  1078                           
  1079                           ; 1 bytes @ 0xA
  1080  002A                     	ds	1
  1081  002B                     printf@ap:
  1082  002B                     ___awdiv@sign:	
  1083                           ; 1 bytes @ 0xB
  1084                           
  1085                           
  1086                           ; 1 bytes @ 0xB
  1087  002B                     	ds	1
  1088  002C                     printf@c:
  1089  002C                     ___awdiv@quotient:	
  1090                           ; 1 bytes @ 0xC
  1091                           
  1092                           
  1093                           ; 2 bytes @ 0xC
  1094  002C                     	ds	2
  1095  002E                     ??_motor_1:
  1096  002E                     ??_motor_2:	
  1097                           ; 1 bytes @ 0xE
  1098                           
  1099                           
  1100                           ; 1 bytes @ 0xE
  1101  002E                     	ds	2
  1102  0030                     ??_mensaje:
  1103                           
  1104                           ; 1 bytes @ 0x10
  1105  0030                     	ds	3
  1106  0033                     ??_main:
  1107                           
  1108                           	psect	maintext
  1109  0B7B                     __pmaintext:	
  1110                           ; 1 bytes @ 0x13
  1111 ;;
  1112 ;;Main: autosize = 0, tempsize = 0, incstack = 0, save=0
  1113 ;;
  1114 ;; *************** function _main *****************
  1115 ;; Defined at:
  1116 ;;		line 280 in file "main_brazo.c"
  1117 ;; Parameters:    Size  Location     Type
  1118 ;;		None
  1119 ;; Auto vars:     Size  Location     Type
  1120 ;;		None
  1121 ;; Return value:  Size  Location     Type
  1122 ;;                  1    wreg      void 
  1123 ;; Registers used:
  1124 ;;		wreg, fsr0l, fsr0h, status,2, status,0, btemp+1, pclath, cstack
  1125 ;; Tracked objects:
  1126 ;;		On entry : B00/0
  1127 ;;		On exit  : 0/0
  1128 ;;		Unchanged: 0/0
  1129 ;; Data sizes:     COMMON   BANK0   BANK1   BANK3   BANK2
  1130 ;;      Params:         0       0       0       0       0
  1131 ;;      Locals:         0       0       0       0       0
  1132 ;;      Temps:          0       0       0       0       0
  1133 ;;      Totals:         0       0       0       0       0
  1134 ;;Total ram usage:        0 bytes
  1135 ;; Hardware stack levels required when called:    6
  1136 ;; This function calls:
  1137 ;;		_mensaje
  1138 ;;		_setup
  1139 ;; This function is called by:
  1140 ;;		Startup code after reset
  1141 ;; This function uses a non-reentrant model
  1142 ;;
  1143                           
  1144                           
  1145                           ;psect for function _main
  1146  0B7B                     _main:
  1147  0B7B                     l2795:	
  1148                           ;incstack = 0
  1149                           ; Regs used in _main: [wreg-fsr0h+status,2+status,0+btemp+1+pclath+cstack]
  1150                           
  1151                           
  1152                           ;main_brazo.c: 281:     RD0 = 1;
  1153  0B7B  120A  158A  2774  120A  158A  	fcall	_setup
  1154  0B80                     l2797:
  1155                           
  1156                           ;main_brazo.c: 285: }
  1157  0B80  1283               	bcf	3,5	;RP0=0, select bank0
  1158  0B81  1303               	bcf	3,6	;RP1=0, select bank0
  1159  0B82  149F               	bsf	31,1	;volatile
  1160  0B83                     l2799:
  1161                           
  1162                           ;main_brazo.c: 286: 
  1163  0B83  120A  118A  2025  120A  158A  	fcall	_mensaje
  1164  0B88  2B80               	goto	l2797
  1165  0B89  120A  118A  280E   	ljmp	start
  1166  0B8C                     __end_of_main:
  1167                           
  1168                           	psect	text1
  1169  0F74                     __ptext1:	
  1170 ;; *************** function _setup *****************
  1171 ;; Defined at:
  1172 ;;		line 601 in file "main_brazo.c"
  1173 ;; Parameters:    Size  Location     Type
  1174 ;;		None
  1175 ;; Auto vars:     Size  Location     Type
  1176 ;;		None
  1177 ;; Return value:  Size  Location     Type
  1178 ;;                  1    wreg      void 
  1179 ;; Registers used:
  1180 ;;		wreg, status,2, status,0
  1181 ;; Tracked objects:
  1182 ;;		On entry : 0/0
  1183 ;;		On exit  : 0/0
  1184 ;;		Unchanged: 0/0
  1185 ;; Data sizes:     COMMON   BANK0   BANK1   BANK3   BANK2
  1186 ;;      Params:         0       0       0       0       0
  1187 ;;      Locals:         0       0       0       0       0
  1188 ;;      Temps:          0       1       0       0       0
  1189 ;;      Totals:         0       1       0       0       0
  1190 ;;Total ram usage:        1 bytes
  1191 ;; Hardware stack levels used:    1
  1192 ;; Hardware stack levels required when called:    3
  1193 ;; This function calls:
  1194 ;;		Nothing
  1195 ;; This function is called by:
  1196 ;;		_main
  1197 ;; This function uses a non-reentrant model
  1198 ;;
  1199                           
  1200                           
  1201                           ;psect for function _setup
  1202  0F74                     _setup:
  1203  0F74                     l2113:	
  1204                           ;incstack = 0
  1205                           ; Regs used in _setup: [wreg+status,2+status,0]
  1206                           
  1207                           
  1208                           ;main_brazo.c: 603:     OSCCONbits.SCS = 1;
  1209  0F74  1683               	bsf	3,5	;RP0=1, select bank1
  1210  0F75  1303               	bcf	3,6	;RP1=0, select bank1
  1211  0F76  1406               	bsf	6,0	;volatile
  1212                           
  1213                           ;main_brazo.c: 604: 
  1214  0F77  1486               	bsf	6,1	;volatile
  1215                           
  1216                           ;main_brazo.c: 605: 
  1217  0F78  1506               	bsf	6,2	;volatile
  1218                           
  1219                           ;main_brazo.c: 606:     ADCON0bits.CHS = 0;
  1220  0F79  1586               	bsf	6,3	;volatile
  1221                           
  1222                           ;main_brazo.c: 607:     _delay((unsigned long)((100)*(4000000/4000000.0)));
  1223  0F7A  1606               	bsf	6,4	;volatile
  1224                           
  1225                           ;main_brazo.c: 610:     ADCON0bits.ADCS1 = 0;
  1226  0F7B  1683               	bsf	3,5	;RP0=1, select bank3
  1227  0F7C  1703               	bsf	3,6	;RP1=1, select bank3
  1228  0F7D  1408               	bsf	8,0	;volatile
  1229                           
  1230                           ;main_brazo.c: 611:     ADCON0bits.ADON = 1;
  1231  0F7E  1488               	bsf	8,1	;volatile
  1232                           
  1233                           ;main_brazo.c: 612:     ADCON1bits.ADFM = 0;
  1234  0F7F  1508               	bsf	8,2	;volatile
  1235                           
  1236                           ;main_brazo.c: 613:     ADCON1bits.VCFG1 = 0;
  1237  0F80  1588               	bsf	8,3	;volatile
  1238  0F81                     l2115:
  1239                           
  1240                           ;main_brazo.c: 614:     ADCON1bits.VCFG0 = 0;
  1241  0F81  0189               	clrf	9	;volatile
  1242  0F82                     l2117:
  1243                           
  1244                           ;main_brazo.c: 615: 
  1245  0F82  1683               	bsf	3,5	;RP0=1, select bank1
  1246  0F83  1303               	bcf	3,6	;RP1=0, select bank1
  1247  0F84  1405               	bsf	5,0	;volatile
  1248  0F85                     l2119:
  1249                           
  1250                           ;main_brazo.c: 616: 
  1251  0F85  1485               	bsf	5,1	;volatile
  1252  0F86                     l2121:
  1253                           
  1254                           ;main_brazo.c: 617: 
  1255  0F86  1505               	bsf	5,2	;volatile
  1256  0F87                     l2123:
  1257                           
  1258                           ;main_brazo.c: 618:     TRISCbits.TRISC2 = 1;
  1259  0F87  1585               	bsf	5,3	;volatile
  1260  0F88                     l2125:
  1261                           
  1262                           ;main_brazo.c: 623:     CCP1CONbits.CCP1M = 0b00001100;
  1263  0F88  1286               	bcf	6,5	;volatile
  1264  0F89                     l2127:
  1265                           
  1266                           ;main_brazo.c: 624: 
  1267  0F89  1306               	bcf	6,6	;volatile
  1268  0F8A                     l2129:
  1269                           
  1270                           ;main_brazo.c: 625: 
  1271  0F8A  1009               	bcf	9,0	;volatile
  1272  0F8B                     l2131:
  1273                           
  1274                           ;main_brazo.c: 626:     CCPR1L = 0x0F;
  1275  0F8B  1089               	bcf	9,1	;volatile
  1276  0F8C                     l2133:
  1277                           
  1278                           ;main_brazo.c: 627:     CCP1CONbits.DC1B = 0;
  1279  0F8C  1109               	bcf	9,2	;volatile
  1280  0F8D                     l2135:
  1281                           
  1282                           ;main_brazo.c: 629:     CCP2CONbits.DC2B0 = 0;
  1283  0F8D  1008               	bcf	8,0	;volatile
  1284  0F8E                     l2137:
  1285                           
  1286                           ;main_brazo.c: 630:     CCP2CONbits.DC2B1 = 0;
  1287  0F8E  1088               	bcf	8,1	;volatile
  1288  0F8F                     l2139:
  1289                           
  1290                           ;main_brazo.c: 631: 
  1291  0F8F  1108               	bcf	8,2	;volatile
  1292  0F90                     l2141:
  1293                           
  1294                           ;main_brazo.c: 634:     T2CONbits.T2CKPS0 = 0;
  1295  0F90  1288               	bcf	8,5	;volatile
  1296  0F91                     l2143:
  1297                           
  1298                           ;main_brazo.c: 635:     T2CONbits.T2CKPS1 = 1;
  1299  0F91  1308               	bcf	8,6	;volatile
  1300  0F92                     l2145:
  1301                           
  1302                           ;main_brazo.c: 636:     T2CONbits.TMR2ON = 1;
  1303  0F92  1388               	bcf	8,7	;volatile
  1304  0F93                     l2147:
  1305                           
  1306                           ;main_brazo.c: 639:     TRISCbits.TRISC2 = 0;
  1307  0F93  1381               	bcf	1,7	;volatile
  1308  0F94                     l2149:
  1309                           
  1310                           ;main_brazo.c: 640:     TRISCbits.TRISC1 = 0;
  1311  0F94  1415               	bsf	21,0	;volatile
  1312  0F95                     l2151:
  1313                           
  1314                           ;main_brazo.c: 641: 
  1315  0F95  1495               	bsf	21,1	;volatile
  1316  0F96                     l2153:
  1317                           
  1318                           ;main_brazo.c: 642: 
  1319  0F96  1515               	bsf	21,2	;volatile
  1320  0F97                     l2155:
  1321                           
  1322                           ;main_brazo.c: 643:     PIE1bits.ADIE = 1;
  1323  0F97  1595               	bsf	21,3	;volatile
  1324  0F98                     l2157:
  1325                           
  1326                           ;main_brazo.c: 644:     PIR1bits.ADIF = 0;
  1327  0F98  1395               	bcf	21,7	;volatile
  1328  0F99                     l2159:
  1329                           
  1330                           ;main_brazo.c: 646:     INTCONbits.PEIE = 1;
  1331  0F99  120F               	bcf	15,4	;volatile
  1332  0F9A                     l2161:
  1333  0F9A  168F               	bsf	15,5	;volatile
  1334  0F9B                     l2163:
  1335  0F9B  170F               	bsf	15,6	;volatile
  1336  0F9C                     l2165:
  1337  0F9C  140F               	bsf	15,0	;volatile
  1338  0F9D                     l2167:
  1339  0F9D  30C3               	movlw	-61
  1340  0F9E  1283               	bcf	3,5	;RP0=0, select bank0
  1341  0F9F  1303               	bcf	3,6	;RP1=0, select bank0
  1342  0FA0  059F               	andwf	31,f	;volatile
  1343  0FA1                     l2169:
  1344  0FA1  3020               	movlw	32
  1345  0FA2  1283               	bcf	3,5	;RP0=0, select bank0
  1346  0FA3  1303               	bcf	3,6	;RP1=0, select bank0
  1347  0FA4  00A5               	movwf	??_setup
  1348  0FA5                     u2317:
  1349  0FA5  0BA5               	decfsz	??_setup,f
  1350  0FA6  2FA5               	goto	u2317
  1351  0FA7  0000               	nop
  1352  0FA8                     l2171:
  1353  0FA8  1283               	bcf	3,5	;RP0=0, select bank0
  1354  0FA9  1303               	bcf	3,6	;RP1=0, select bank0
  1355  0FAA  171F               	bsf	31,6	;volatile
  1356  0FAB                     l2173:
  1357  0FAB  139F               	bcf	31,7	;volatile
  1358  0FAC                     l2175:
  1359  0FAC  141F               	bsf	31,0	;volatile
  1360  0FAD                     l2177:
  1361  0FAD  1683               	bsf	3,5	;RP0=1, select bank1
  1362  0FAE  1303               	bcf	3,6	;RP1=0, select bank1
  1363  0FAF  139F               	bcf	31,7	;volatile
  1364  0FB0                     l2179:
  1365  0FB0  129F               	bcf	31,5	;volatile
  1366  0FB1                     l2181:
  1367  0FB1  121F               	bcf	31,4	;volatile
  1368  0FB2                     l2183:
  1369  0FB2  1507               	bsf	7,2	;volatile
  1370  0FB3                     l2185:
  1371  0FB3  1487               	bsf	7,1	;volatile
  1372  0FB4                     l2187:
  1373  0FB4  307D               	movlw	125
  1374  0FB5  0092               	movwf	18	;volatile
  1375  0FB6                     l2189:
  1376  0FB6  303F               	movlw	-193
  1377  0FB7  1283               	bcf	3,5	;RP0=0, select bank0
  1378  0FB8  1303               	bcf	3,6	;RP1=0, select bank0
  1379  0FB9  0597               	andwf	23,f	;volatile
  1380  0FBA                     l2191:
  1381  0FBA  300F               	movlw	15
  1382  0FBB  049D               	iorwf	29,f	;volatile
  1383  0FBC                     l2193:
  1384  0FBC  0817               	movf	23,w	;volatile
  1385  0FBD  39F0               	andlw	-16
  1386  0FBE  380C               	iorlw	12
  1387  0FBF  0097               	movwf	23	;volatile
  1388  0FC0                     l2195:
  1389  0FC0  300F               	movlw	15
  1390  0FC1  0095               	movwf	21	;volatile
  1391  0FC2                     l2197:
  1392  0FC2  30CF               	movlw	-49
  1393  0FC3  0597               	andwf	23,f	;volatile
  1394  0FC4                     l2199:
  1395  0FC4  300F               	movlw	15
  1396  0FC5  009B               	movwf	27	;volatile
  1397  0FC6                     l2201:
  1398  0FC6  121D               	bcf	29,4	;volatile
  1399  0FC7                     l2203:
  1400  0FC7  129D               	bcf	29,5	;volatile
  1401  0FC8                     l2205:
  1402  0FC8  108C               	bcf	12,1	;volatile
  1403  0FC9                     l2207:
  1404  0FC9  1012               	bcf	18,0	;volatile
  1405  0FCA                     l2209:
  1406  0FCA  1492               	bsf	18,1	;volatile
  1407  0FCB                     l2211:
  1408  0FCB  1512               	bsf	18,2	;volatile
  1409  0FCC                     l372:
  1410  0FCC  1C8C               	btfss	12,1	;volatile
  1411  0FCD  2FCF               	goto	u1391
  1412  0FCE  2FD0               	goto	u1390
  1413  0FCF                     u1391:
  1414  0FCF  2FCC               	goto	l372
  1415  0FD0                     u1390:
  1416  0FD0                     l374:
  1417  0FD0  108C               	bcf	12,1	;volatile
  1418  0FD1  1683               	bsf	3,5	;RP0=1, select bank1
  1419  0FD2  1303               	bcf	3,6	;RP1=0, select bank1
  1420  0FD3  1107               	bcf	7,2	;volatile
  1421  0FD4  1087               	bcf	7,1	;volatile
  1422  0FD5  170C               	bsf	12,6	;volatile
  1423  0FD6  1283               	bcf	3,5	;RP0=0, select bank0
  1424  0FD7  1303               	bcf	3,6	;RP1=0, select bank0
  1425  0FD8  130C               	bcf	12,6	;volatile
  1426  0FD9  178B               	bsf	11,7	;volatile
  1427  0FDA  170B               	bsf	11,6	;volatile
  1428                           
  1429                           ;main_brazo.c: 705:     IOCBbits.IOCB3 = 1;
  1430  0FDB  1683               	bsf	3,5	;RP0=1, select bank1
  1431  0FDC  1303               	bcf	3,6	;RP1=0, select bank1
  1432  0FDD  1596               	bsf	22,3	;volatile
  1433                           
  1434                           ;main_brazo.c: 706:     IOCBbits.IOCB4 = 1;
  1435  0FDE  1616               	bsf	22,4	;volatile
  1436                           
  1437                           ;main_brazo.c: 707:     INTCONbits.RBIE = 1;
  1438  0FDF  158B               	bsf	11,3	;volatile
  1439                           
  1440                           ;main_brazo.c: 708:     INTCONbits.RBIF = 0;
  1441  0FE0  100B               	bcf	11,0	;volatile
  1442  0FE1                     l2213:
  1443                           
  1444                           ;main_brazo.c: 711:     SPBRG = 103;
  1445  0FE1  3067               	movlw	103
  1446  0FE2  0099               	movwf	25	;volatile
  1447  0FE3                     l2215:
  1448                           
  1449                           ;main_brazo.c: 712:     SPBRGH = 0;
  1450  0FE3  019A               	clrf	26	;volatile
  1451  0FE4                     l2217:
  1452                           
  1453                           ;main_brazo.c: 713:     BAUDCTLbits.BRG16 = 1;
  1454  0FE4  1683               	bsf	3,5	;RP0=1, select bank3
  1455  0FE5  1703               	bsf	3,6	;RP1=1, select bank3
  1456  0FE6  1587               	bsf	7,3	;volatile
  1457  0FE7                     l2219:
  1458                           
  1459                           ;main_brazo.c: 714:     TXSTAbits.BRGH = 1;
  1460  0FE7  1683               	bsf	3,5	;RP0=1, select bank1
  1461  0FE8  1303               	bcf	3,6	;RP1=0, select bank1
  1462  0FE9  1518               	bsf	24,2	;volatile
  1463  0FEA                     l2221:
  1464                           
  1465                           ;main_brazo.c: 716:     TXSTAbits.SYNC = 0;
  1466  0FEA  1218               	bcf	24,4	;volatile
  1467  0FEB                     l2223:
  1468                           
  1469                           ;main_brazo.c: 718:     RCSTAbits.SPEN = 1;
  1470  0FEB  1283               	bcf	3,5	;RP0=0, select bank0
  1471  0FEC  1303               	bcf	3,6	;RP1=0, select bank0
  1472  0FED  1798               	bsf	24,7	;volatile
  1473  0FEE                     l2225:
  1474                           
  1475                           ;main_brazo.c: 719:     RCSTAbits.CREN = 1;
  1476  0FEE  1618               	bsf	24,4	;volatile
  1477  0FEF                     l2227:
  1478                           
  1479                           ;main_brazo.c: 721:     TXSTAbits.TX9 = 0;
  1480  0FEF  1683               	bsf	3,5	;RP0=1, select bank1
  1481  0FF0  1303               	bcf	3,6	;RP1=0, select bank1
  1482  0FF1  1318               	bcf	24,6	;volatile
  1483  0FF2                     l2229:
  1484                           
  1485                           ;main_brazo.c: 722:     TXSTAbits.TXEN = 1;
  1486  0FF2  1698               	bsf	24,5	;volatile
  1487  0FF3                     l2231:
  1488                           
  1489                           ;main_brazo.c: 723:     RCSTAbits.RX9 = 0;
  1490  0FF3  1283               	bcf	3,5	;RP0=0, select bank0
  1491  0FF4  1303               	bcf	3,6	;RP1=0, select bank0
  1492  0FF5  1318               	bcf	24,6	;volatile
  1493  0FF6                     l2233:
  1494                           
  1495                           ;main_brazo.c: 726:     INTCONbits.GIE = 1;
  1496  0FF6  178B               	bsf	11,7	;volatile
  1497  0FF7                     l2235:
  1498                           
  1499                           ;main_brazo.c: 727:     INTCONbits.PEIE = 1;
  1500  0FF7  170B               	bsf	11,6	;volatile
  1501  0FF8                     l2237:
  1502                           
  1503                           ;main_brazo.c: 729:     PIR1bits.TXIF = 0;
  1504  0FF8  120C               	bcf	12,4	;volatile
  1505  0FF9                     l2239:
  1506                           
  1507                           ;main_brazo.c: 730:     PIR1bits.RCIF = 0;
  1508  0FF9  128C               	bcf	12,5	;volatile
  1509  0FFA                     l2241:
  1510                           
  1511                           ;main_brazo.c: 733:     PORTA = 0x00;
  1512  0FFA  0185               	clrf	5	;volatile
  1513  0FFB                     l2243:
  1514                           
  1515                           ;main_brazo.c: 734:     PORTB = 0x00;
  1516  0FFB  0186               	clrf	6	;volatile
  1517  0FFC                     l2245:
  1518                           
  1519                           ;main_brazo.c: 735:     PORTC = 0x00;
  1520  0FFC  0187               	clrf	7	;volatile
  1521  0FFD                     l2247:
  1522                           
  1523                           ;main_brazo.c: 736:     PORTD = 0x00;
  1524  0FFD  0188               	clrf	8	;volatile
  1525  0FFE                     l2249:
  1526                           
  1527                           ;main_brazo.c: 737:     PORTE = 0x00;
  1528  0FFE  0189               	clrf	9	;volatile
  1529  0FFF                     l375:
  1530  0FFF  0008               	return
  1531  1000                     __end_of_setup:
  1532                           
  1533                           	psect	text2
  1534  0025                     __ptext2:	
  1535 ;; *************** function _mensaje *****************
  1536 ;; Defined at:
  1537 ;;		line 455 in file "main_brazo.c"
  1538 ;; Parameters:    Size  Location     Type
  1539 ;;		None
  1540 ;; Auto vars:     Size  Location     Type
  1541 ;;		None
  1542 ;; Return value:  Size  Location     Type
  1543 ;;                  1    wreg      void 
  1544 ;; Registers used:
  1545 ;;		wreg, fsr0l, fsr0h, status,2, status,0, btemp+1, pclath, cstack
  1546 ;; Tracked objects:
  1547 ;;		On entry : 0/0
  1548 ;;		On exit  : 0/0
  1549 ;;		Unchanged: 0/0
  1550 ;; Data sizes:     COMMON   BANK0   BANK1   BANK3   BANK2
  1551 ;;      Params:         0       0       0       0       0
  1552 ;;      Locals:         0       0       0       0       0
  1553 ;;      Temps:          0       3       0       0       0
  1554 ;;      Totals:         0       3       0       0       0
  1555 ;;Total ram usage:        3 bytes
  1556 ;; Hardware stack levels used:    1
  1557 ;; Hardware stack levels required when called:    5
  1558 ;; This function calls:
  1559 ;;		_motor_1
  1560 ;;		_motor_2
  1561 ;;		_motor_detenido
  1562 ;;		_printf
  1563 ;;		_servo_1_1
  1564 ;;		_servo_1_2
  1565 ;;		_servo_1_3
  1566 ;;		_servo_1_4
  1567 ;;		_servo_1_5
  1568 ;;		_servo_2_1
  1569 ;;		_servo_2_2
  1570 ;;		_servo_2_3
  1571 ;;		_servo_2_4
  1572 ;;		_servo_2_5
  1573 ;;		_servo_3_1
  1574 ;;		_servo_3_2
  1575 ;;		_servo_3_3
  1576 ;;		_servo_3_4
  1577 ;;		_servo_3_5
  1578 ;; This function is called by:
  1579 ;;		_main
  1580 ;; This function uses a non-reentrant model
  1581 ;;
  1582                           
  1583                           
  1584                           ;psect for function _mensaje
  1585  0025                     _mensaje:
  1586  0025                     l2253:	
  1587                           ;incstack = 0
  1588                           ; Regs used in _mensaje: [wreg-fsr0h+status,2+status,0+btemp+1+pclath+cstack]
  1589                           
  1590                           
  1591                           ;main_brazo.c: 456:             }
  1592  0025  3003               	movlw	3
  1593  0026  1283               	bcf	3,5	;RP0=0, select bank0
  1594  0027  1303               	bcf	3,6	;RP1=0, select bank0
  1595  0028  00B2               	movwf	??_mensaje+2
  1596  0029  308A               	movlw	138
  1597  002A  00B1               	movwf	??_mensaje+1
  1598  002B  3055               	movlw	85
  1599  002C  00B0               	movwf	??_mensaje
  1600  002D                     u2327:
  1601  002D  0BB0               	decfsz	??_mensaje,f
  1602  002E  282D               	goto	u2327
  1603  002F  0BB1               	decfsz	??_mensaje+1,f
  1604  0030  282D               	goto	u2327
  1605  0031  0BB2               	decfsz	??_mensaje+2,f
  1606  0032  282D               	goto	u2327
  1607  0033                     l2255:
  1608                           
  1609                           ;main_brazo.c: 457:             while (RCIF == 0);
  1610  0033  3082               	movlw	low (STR_1| (0+32768))
  1611  0034  1283               	bcf	3,5	;RP0=0, select bank0
  1612  0035  1303               	bcf	3,6	;RP1=0, select bank0
  1613  0036  00A6               	movwf	printf@f
  1614  0037  3088               	movlw	high (STR_1| (0+32768))
  1615  0038  00A7               	movwf	printf@f+1
  1616  0039  120A  158A  26E5  120A  118A  	fcall	_printf
  1617  003E                     l2257:
  1618                           
  1619                           ;main_brazo.c: 458:         }
  1620  003E  3002               	movlw	2
  1621  003F  1283               	bcf	3,5	;RP0=0, select bank0
  1622  0040  1303               	bcf	3,6	;RP1=0, select bank0
  1623  0041  00B2               	movwf	??_mensaje+2
  1624  0042  3045               	movlw	69
  1625  0043  00B1               	movwf	??_mensaje+1
  1626  0044  30A9               	movlw	169
  1627  0045  00B0               	movwf	??_mensaje
  1628  0046                     u2337:
  1629  0046  0BB0               	decfsz	??_mensaje,f
  1630  0047  2846               	goto	u2337
  1631  0048  0BB1               	decfsz	??_mensaje+1,f
  1632  0049  2846               	goto	u2337
  1633  004A  0BB2               	decfsz	??_mensaje+2,f
  1634  004B  2846               	goto	u2337
  1635                           
  1636                           ;main_brazo.c: 459:         if (RCREG == 'b'){
  1637  004C  30A0               	movlw	low (STR_2| (0+32768))
  1638  004D  1283               	bcf	3,5	;RP0=0, select bank0
  1639  004E  1303               	bcf	3,6	;RP1=0, select bank0
  1640  004F  00A6               	movwf	printf@f
  1641  0050  3088               	movlw	high (STR_2| (0+32768))
  1642  0051  00A7               	movwf	printf@f+1
  1643  0052  120A  158A  26E5  120A  118A  	fcall	_printf
  1644  0057                     l2259:
  1645                           
  1646                           ;main_brazo.c: 460:             printf("\r Seleccione entre los siguiente para dar la po
      +                          sicion:");
  1647  0057  3002               	movlw	2
  1648  0058  1283               	bcf	3,5	;RP0=0, select bank0
  1649  0059  1303               	bcf	3,6	;RP1=0, select bank0
  1650  005A  00B2               	movwf	??_mensaje+2
  1651  005B  3045               	movlw	69
  1652  005C  00B1               	movwf	??_mensaje+1
  1653  005D  30A9               	movlw	169
  1654  005E  00B0               	movwf	??_mensaje
  1655  005F                     u2347:
  1656  005F  0BB0               	decfsz	??_mensaje,f
  1657  0060  285F               	goto	u2347
  1658  0061  0BB1               	decfsz	??_mensaje+1,f
  1659  0062  285F               	goto	u2347
  1660  0063  0BB2               	decfsz	??_mensaje+2,f
  1661  0064  285F               	goto	u2347
  1662  0065                     l2261:
  1663                           
  1664                           ;main_brazo.c: 461:             _delay((unsigned long)((250)*(4000000/4000.0)));
  1665  0065  30B3               	movlw	low (STR_3| (0+32768))
  1666  0066  1283               	bcf	3,5	;RP0=0, select bank0
  1667  0067  1303               	bcf	3,6	;RP1=0, select bank0
  1668  0068  00A6               	movwf	printf@f
  1669  0069  3088               	movlw	high (STR_3| (0+32768))
  1670  006A  00A7               	movwf	printf@f+1
  1671  006B  120A  158A  26E5  120A  118A  	fcall	_printf
  1672                           
  1673                           ;main_brazo.c: 462:             printf("\r 1: -45 ");
  1674  0070  3002               	movlw	2
  1675  0071  1283               	bcf	3,5	;RP0=0, select bank0
  1676  0072  1303               	bcf	3,6	;RP1=0, select bank0
  1677  0073  00B2               	movwf	??_mensaje+2
  1678  0074  3045               	movlw	69
  1679  0075  00B1               	movwf	??_mensaje+1
  1680  0076  30A9               	movlw	169
  1681  0077  00B0               	movwf	??_mensaje
  1682  0078                     u2357:
  1683  0078  0BB0               	decfsz	??_mensaje,f
  1684  0079  2878               	goto	u2357
  1685  007A  0BB1               	decfsz	??_mensaje+1,f
  1686  007B  2878               	goto	u2357
  1687  007C  0BB2               	decfsz	??_mensaje+2,f
  1688  007D  2878               	goto	u2357
  1689  007E                     l2263:
  1690                           
  1691                           ;main_brazo.c: 463:             _delay((unsigned long)((250)*(4000000/4000.0)));
  1692  007E  3043               	movlw	low (STR_4| (0+32768))
  1693  007F  1283               	bcf	3,5	;RP0=0, select bank0
  1694  0080  1303               	bcf	3,6	;RP1=0, select bank0
  1695  0081  00A6               	movwf	printf@f
  1696  0082  3089               	movlw	high (STR_4| (0+32768))
  1697  0083  00A7               	movwf	printf@f+1
  1698  0084  120A  158A  26E5  120A  118A  	fcall	_printf
  1699  0089                     l327:	
  1700                           ;main_brazo.c: 464:             printf("\r 2: -90 ");
  1701                           
  1702  0089  1283               	bcf	3,5	;RP0=0, select bank0
  1703  008A  1303               	bcf	3,6	;RP1=0, select bank0
  1704  008B  1E8C               	btfss	12,5	;volatile
  1705  008C  288E               	goto	u1401
  1706  008D  288F               	goto	u1400
  1707  008E                     u1401:
  1708  008E  2889               	goto	l327
  1709  008F                     u1400:
  1710  008F                     l2265:
  1711                           
  1712                           ;main_brazo.c: 465:             _delay((unsigned long)((250)*(4000000/4000.0)));
  1713  008F  3031               	movlw	49
  1714  0090  061A               	xorwf	26,w	;volatile
  1715  0091  1D03               	btfss	3,2
  1716  0092  2894               	goto	u1411
  1717  0093  2895               	goto	u1410
  1718  0094                     u1411:
  1719  0094  2BA2               	goto	l2399
  1720  0095                     u1410:
  1721  0095                     l2267:
  1722                           
  1723                           ;main_brazo.c: 466:             printf("\r 3: 0 ");
  1724  0095  3003               	movlw	3
  1725  0096  1283               	bcf	3,5	;RP0=0, select bank0
  1726  0097  1303               	bcf	3,6	;RP1=0, select bank0
  1727  0098  00B2               	movwf	??_mensaje+2
  1728  0099  308A               	movlw	138
  1729  009A  00B1               	movwf	??_mensaje+1
  1730  009B  3055               	movlw	85
  1731  009C  00B0               	movwf	??_mensaje
  1732  009D                     u2367:
  1733  009D  0BB0               	decfsz	??_mensaje,f
  1734  009E  289D               	goto	u2367
  1735  009F  0BB1               	decfsz	??_mensaje+1,f
  1736  00A0  289D               	goto	u2367
  1737  00A1  0BB2               	decfsz	??_mensaje+2,f
  1738  00A2  289D               	goto	u2367
  1739  00A3                     l2269:
  1740                           
  1741                           ;main_brazo.c: 467:             _delay((unsigned long)((250)*(4000000/4000.0)));
  1742  00A3  305D               	movlw	low (STR_5| (0+32768))
  1743  00A4  1283               	bcf	3,5	;RP0=0, select bank0
  1744  00A5  1303               	bcf	3,6	;RP1=0, select bank0
  1745  00A6  00A6               	movwf	printf@f
  1746  00A7  3088               	movlw	high (STR_5| (0+32768))
  1747  00A8  00A7               	movwf	printf@f+1
  1748  00A9  120A  158A  26E5  120A  118A  	fcall	_printf
  1749  00AE                     l2271:
  1750                           
  1751                           ;main_brazo.c: 468:             printf("\r 4: 90 ");
  1752  00AE  3002               	movlw	2
  1753  00AF  1283               	bcf	3,5	;RP0=0, select bank0
  1754  00B0  1303               	bcf	3,6	;RP1=0, select bank0
  1755  00B1  00B2               	movwf	??_mensaje+2
  1756  00B2  3045               	movlw	69
  1757  00B3  00B1               	movwf	??_mensaje+1
  1758  00B4  30A9               	movlw	169
  1759  00B5  00B0               	movwf	??_mensaje
  1760  00B6                     u2377:
  1761  00B6  0BB0               	decfsz	??_mensaje,f
  1762  00B7  28B6               	goto	u2377
  1763  00B8  0BB1               	decfsz	??_mensaje+1,f
  1764  00B9  28B6               	goto	u2377
  1765  00BA  0BB2               	decfsz	??_mensaje+2,f
  1766  00BB  28B6               	goto	u2377
  1767                           
  1768                           ;main_brazo.c: 469:             _delay((unsigned long)((250)*(4000000/4000.0)));
  1769  00BC  30D4               	movlw	low (STR_6| (0+32768))
  1770  00BD  1283               	bcf	3,5	;RP0=0, select bank0
  1771  00BE  1303               	bcf	3,6	;RP1=0, select bank0
  1772  00BF  00A6               	movwf	printf@f
  1773  00C0  3088               	movlw	high (STR_6| (0+32768))
  1774  00C1  00A7               	movwf	printf@f+1
  1775  00C2  120A  158A  26E5  120A  118A  	fcall	_printf
  1776  00C7                     l2273:
  1777                           
  1778                           ;main_brazo.c: 470:             printf("\r 5: 45 ");
  1779  00C7  3002               	movlw	2
  1780  00C8  1283               	bcf	3,5	;RP0=0, select bank0
  1781  00C9  1303               	bcf	3,6	;RP1=0, select bank0
  1782  00CA  00B2               	movwf	??_mensaje+2
  1783  00CB  3045               	movlw	69
  1784  00CC  00B1               	movwf	??_mensaje+1
  1785  00CD  30A9               	movlw	169
  1786  00CE  00B0               	movwf	??_mensaje
  1787  00CF                     u2387:
  1788  00CF  0BB0               	decfsz	??_mensaje,f
  1789  00D0  28CF               	goto	u2387
  1790  00D1  0BB1               	decfsz	??_mensaje+1,f
  1791  00D2  28CF               	goto	u2387
  1792  00D3  0BB2               	decfsz	??_mensaje+2,f
  1793  00D4  28CF               	goto	u2387
  1794  00D5                     l2275:
  1795                           
  1796                           ;main_brazo.c: 471:             _delay((unsigned long)((250)*(4000000/4000.0)));
  1797  00D5  30E1               	movlw	low (STR_7| (0+32768))
  1798  00D6  1283               	bcf	3,5	;RP0=0, select bank0
  1799  00D7  1303               	bcf	3,6	;RP1=0, select bank0
  1800  00D8  00A6               	movwf	printf@f
  1801  00D9  3088               	movlw	high (STR_7| (0+32768))
  1802  00DA  00A7               	movwf	printf@f+1
  1803  00DB  120A  158A  26E5  120A  118A  	fcall	_printf
  1804                           
  1805                           ;main_brazo.c: 472:             if (RCREG == '1'){
  1806  00E0  3002               	movlw	2
  1807  00E1  1283               	bcf	3,5	;RP0=0, select bank0
  1808  00E2  1303               	bcf	3,6	;RP1=0, select bank0
  1809  00E3  00B2               	movwf	??_mensaje+2
  1810  00E4  3045               	movlw	69
  1811  00E5  00B1               	movwf	??_mensaje+1
  1812  00E6  30A9               	movlw	169
  1813  00E7  00B0               	movwf	??_mensaje
  1814  00E8                     u2397:
  1815  00E8  0BB0               	decfsz	??_mensaje,f
  1816  00E9  28E8               	goto	u2397
  1817  00EA  0BB1               	decfsz	??_mensaje+1,f
  1818  00EB  28E8               	goto	u2397
  1819  00EC  0BB2               	decfsz	??_mensaje+2,f
  1820  00ED  28E8               	goto	u2397
  1821  00EE                     l2277:
  1822                           
  1823                           ;main_brazo.c: 473:                 servo_2_1();
  1824  00EE  30EE               	movlw	low (STR_8| (0+32768))
  1825  00EF  1283               	bcf	3,5	;RP0=0, select bank0
  1826  00F0  1303               	bcf	3,6	;RP1=0, select bank0
  1827  00F1  00A6               	movwf	printf@f
  1828  00F2  3088               	movlw	high (STR_8| (0+32768))
  1829  00F3  00A7               	movwf	printf@f+1
  1830  00F4  120A  158A  26E5  120A  118A  	fcall	_printf
  1831  00F9                     l331:	
  1832                           ;main_brazo.c: 474:             }
  1833                           
  1834  00F9  1283               	bcf	3,5	;RP0=0, select bank0
  1835  00FA  1303               	bcf	3,6	;RP1=0, select bank0
  1836  00FB  1E8C               	btfss	12,5	;volatile
  1837  00FC  28FE               	goto	u1421
  1838  00FD  28FF               	goto	u1420
  1839  00FE                     u1421:
  1840  00FE  28F9               	goto	l331
  1841  00FF                     u1420:
  1842  00FF                     l2279:
  1843                           
  1844                           ;main_brazo.c: 475:             if (RCREG == '2'){
  1845  00FF  3061               	movlw	97
  1846  0100  061A               	xorwf	26,w	;volatile
  1847  0101  1D03               	btfss	3,2
  1848  0102  2904               	goto	u1431
  1849  0103  2905               	goto	u1430
  1850  0104                     u1431:
  1851  0104  29E0               	goto	l2319
  1852  0105                     u1430:
  1853  0105                     l2281:
  1854                           
  1855                           ;main_brazo.c: 476:                 servo_2_2();
  1856  0105  3000               	movlw	low (STR_9| (0+32768))
  1857  0106  00A6               	movwf	printf@f
  1858  0107  3088               	movlw	high (STR_9| (0+32768))
  1859  0108  00A7               	movwf	printf@f+1
  1860  0109  120A  158A  26E5  120A  118A  	fcall	_printf
  1861  010E                     l2283:
  1862                           
  1863                           ;main_brazo.c: 477:             }
  1864  010E  3002               	movlw	2
  1865  010F  1283               	bcf	3,5	;RP0=0, select bank0
  1866  0110  1303               	bcf	3,6	;RP1=0, select bank0
  1867  0111  00B2               	movwf	??_mensaje+2
  1868  0112  3045               	movlw	69
  1869  0113  00B1               	movwf	??_mensaje+1
  1870  0114  30A9               	movlw	169
  1871  0115  00B0               	movwf	??_mensaje
  1872  0116                     u2407:
  1873  0116  0BB0               	decfsz	??_mensaje,f
  1874  0117  2916               	goto	u2407
  1875  0118  0BB1               	decfsz	??_mensaje+1,f
  1876  0119  2916               	goto	u2407
  1877  011A  0BB2               	decfsz	??_mensaje+2,f
  1878  011B  2916               	goto	u2407
  1879  011C                     l2285:
  1880                           
  1881                           ;main_brazo.c: 478:             if (RCREG == '3'){
  1882  011C  301F               	movlw	low (STR_10| (0+32768))
  1883  011D  1283               	bcf	3,5	;RP0=0, select bank0
  1884  011E  1303               	bcf	3,6	;RP1=0, select bank0
  1885  011F  00A6               	movwf	printf@f
  1886  0120  3089               	movlw	high (STR_10| (0+32768))
  1887  0121  00A7               	movwf	printf@f+1
  1888  0122  120A  158A  26E5  120A  118A  	fcall	_printf
  1889                           
  1890                           ;main_brazo.c: 479:                 servo_2_3();
  1891  0127  3002               	movlw	2
  1892  0128  1283               	bcf	3,5	;RP0=0, select bank0
  1893  0129  1303               	bcf	3,6	;RP1=0, select bank0
  1894  012A  00B2               	movwf	??_mensaje+2
  1895  012B  3045               	movlw	69
  1896  012C  00B1               	movwf	??_mensaje+1
  1897  012D  30A9               	movlw	169
  1898  012E  00B0               	movwf	??_mensaje
  1899  012F                     u2417:
  1900  012F  0BB0               	decfsz	??_mensaje,f
  1901  0130  292F               	goto	u2417
  1902  0131  0BB1               	decfsz	??_mensaje+1,f
  1903  0132  292F               	goto	u2417
  1904  0133  0BB2               	decfsz	??_mensaje+2,f
  1905  0134  292F               	goto	u2417
  1906  0135                     l2287:
  1907                           
  1908                           ;main_brazo.c: 480:             }
  1909  0135  3015               	movlw	low (STR_11| (0+32768))
  1910  0136  1283               	bcf	3,5	;RP0=0, select bank0
  1911  0137  1303               	bcf	3,6	;RP1=0, select bank0
  1912  0138  00A6               	movwf	printf@f
  1913  0139  3089               	movlw	high (STR_11| (0+32768))
  1914  013A  00A7               	movwf	printf@f+1
  1915  013B  120A  158A  26E5  120A  118A  	fcall	_printf
  1916  0140                     l2289:
  1917                           
  1918                           ;main_brazo.c: 481:             if (RCREG == '4'){
  1919  0140  3002               	movlw	2
  1920  0141  1283               	bcf	3,5	;RP0=0, select bank0
  1921  0142  1303               	bcf	3,6	;RP1=0, select bank0
  1922  0143  00B2               	movwf	??_mensaje+2
  1923  0144  3045               	movlw	69
  1924  0145  00B1               	movwf	??_mensaje+1
  1925  0146  30A9               	movlw	169
  1926  0147  00B0               	movwf	??_mensaje
  1927  0148                     u2427:
  1928  0148  0BB0               	decfsz	??_mensaje,f
  1929  0149  2948               	goto	u2427
  1930  014A  0BB1               	decfsz	??_mensaje+1,f
  1931  014B  2948               	goto	u2427
  1932  014C  0BB2               	decfsz	??_mensaje+2,f
  1933  014D  2948               	goto	u2427
  1934                           
  1935                           ;main_brazo.c: 482:                 servo_2_4();
  1936  014E  303B               	movlw	low (STR_12| (0+32768))
  1937  014F  1283               	bcf	3,5	;RP0=0, select bank0
  1938  0150  1303               	bcf	3,6	;RP1=0, select bank0
  1939  0151  00A6               	movwf	printf@f
  1940  0152  3089               	movlw	high (STR_12| (0+32768))
  1941  0153  00A7               	movwf	printf@f+1
  1942  0154  120A  158A  26E5  120A  118A  	fcall	_printf
  1943  0159                     l2291:
  1944                           
  1945                           ;main_brazo.c: 483:             }
  1946  0159  3002               	movlw	2
  1947  015A  1283               	bcf	3,5	;RP0=0, select bank0
  1948  015B  1303               	bcf	3,6	;RP1=0, select bank0
  1949  015C  00B2               	movwf	??_mensaje+2
  1950  015D  3045               	movlw	69
  1951  015E  00B1               	movwf	??_mensaje+1
  1952  015F  30A9               	movlw	169
  1953  0160  00B0               	movwf	??_mensaje
  1954  0161                     u2437:
  1955  0161  0BB0               	decfsz	??_mensaje,f
  1956  0162  2961               	goto	u2437
  1957  0163  0BB1               	decfsz	??_mensaje+1,f
  1958  0164  2961               	goto	u2437
  1959  0165  0BB2               	decfsz	??_mensaje+2,f
  1960  0166  2961               	goto	u2437
  1961  0167                     l2293:
  1962                           
  1963                           ;main_brazo.c: 484:             if (RCREG == '5'){
  1964  0167  3029               	movlw	low (STR_13| (0+32768))
  1965  0168  1283               	bcf	3,5	;RP0=0, select bank0
  1966  0169  1303               	bcf	3,6	;RP1=0, select bank0
  1967  016A  00A6               	movwf	printf@f
  1968  016B  3089               	movlw	high (STR_13| (0+32768))
  1969  016C  00A7               	movwf	printf@f+1
  1970  016D  120A  158A  26E5  120A  118A  	fcall	_printf
  1971                           
  1972                           ;main_brazo.c: 485:                 servo_2_5();
  1973  0172  3002               	movlw	2
  1974  0173  1283               	bcf	3,5	;RP0=0, select bank0
  1975  0174  1303               	bcf	3,6	;RP1=0, select bank0
  1976  0175  00B2               	movwf	??_mensaje+2
  1977  0176  3045               	movlw	69
  1978  0177  00B1               	movwf	??_mensaje+1
  1979  0178  30A9               	movlw	169
  1980  0179  00B0               	movwf	??_mensaje
  1981  017A                     u2447:
  1982  017A  0BB0               	decfsz	??_mensaje,f
  1983  017B  297A               	goto	u2447
  1984  017C  0BB1               	decfsz	??_mensaje+1,f
  1985  017D  297A               	goto	u2447
  1986  017E  0BB2               	decfsz	??_mensaje+2,f
  1987  017F  297A               	goto	u2447
  1988  0180                     l2295:
  1989                           
  1990                           ;main_brazo.c: 486:             }
  1991  0180  3032               	movlw	low (STR_14| (0+32768))
  1992  0181  1283               	bcf	3,5	;RP0=0, select bank0
  1993  0182  1303               	bcf	3,6	;RP1=0, select bank0
  1994  0183  00A6               	movwf	printf@f
  1995  0184  3089               	movlw	high (STR_14| (0+32768))
  1996  0185  00A7               	movwf	printf@f+1
  1997  0186  120A  158A  26E5  120A  118A  	fcall	_printf
  1998  018B                     l2297:
  1999                           
  2000                           ;main_brazo.c: 487:             while (RCIF == 0);
  2001  018B  3002               	movlw	2
  2002  018C  1283               	bcf	3,5	;RP0=0, select bank0
  2003  018D  1303               	bcf	3,6	;RP1=0, select bank0
  2004  018E  00B2               	movwf	??_mensaje+2
  2005  018F  3045               	movlw	69
  2006  0190  00B1               	movwf	??_mensaje+1
  2007  0191  30A9               	movlw	169
  2008  0192  00B0               	movwf	??_mensaje
  2009  0193                     u2457:
  2010  0193  0BB0               	decfsz	??_mensaje,f
  2011  0194  2993               	goto	u2457
  2012  0195  0BB1               	decfsz	??_mensaje+1,f
  2013  0196  2993               	goto	u2457
  2014  0197  0BB2               	decfsz	??_mensaje+2,f
  2015  0198  2993               	goto	u2457
  2016  0199                     l2299:
  2017                           
  2018                           ;main_brazo.c: 488:         }
  2019  0199  3031               	movlw	49
  2020  019A  1283               	bcf	3,5	;RP0=0, select bank0
  2021  019B  1303               	bcf	3,6	;RP1=0, select bank0
  2022  019C  061A               	xorwf	26,w	;volatile
  2023  019D  1D03               	btfss	3,2
  2024  019E  29A0               	goto	u1441
  2025  019F  29A1               	goto	u1440
  2026  01A0                     u1441:
  2027  01A0  29A6               	goto	l2303
  2028  01A1                     u1440:
  2029  01A1                     l2301:
  2030                           
  2031                           ;main_brazo.c: 489:         if (RCREG == 'c'){
  2032  01A1  120A  158A  2530  120A  118A  	fcall	_servo_1_1
  2033  01A6                     l2303:
  2034                           
  2035                           ;main_brazo.c: 491:             _delay((unsigned long)((250)*(4000000/4000.0)));
  2036  01A6  3032               	movlw	50
  2037  01A7  1283               	bcf	3,5	;RP0=0, select bank0
  2038  01A8  1303               	bcf	3,6	;RP1=0, select bank0
  2039  01A9  061A               	xorwf	26,w	;volatile
  2040  01AA  1D03               	btfss	3,2
  2041  01AB  29AD               	goto	u1451
  2042  01AC  29AE               	goto	u1450
  2043  01AD                     u1451:
  2044  01AD  29B3               	goto	l2307
  2045  01AE                     u1450:
  2046  01AE                     l2305:
  2047                           
  2048                           ;main_brazo.c: 492:             printf("\r 1: -45 ");
  2049  01AE  120A  158A  257B  120A  118A  	fcall	_servo_1_2
  2050  01B3                     l2307:
  2051                           
  2052                           ;main_brazo.c: 494:             printf("\r 2: -90 ");
  2053  01B3  3033               	movlw	51
  2054  01B4  1283               	bcf	3,5	;RP0=0, select bank0
  2055  01B5  1303               	bcf	3,6	;RP1=0, select bank0
  2056  01B6  061A               	xorwf	26,w	;volatile
  2057  01B7  1D03               	btfss	3,2
  2058  01B8  29BA               	goto	u1461
  2059  01B9  29BB               	goto	u1460
  2060  01BA                     u1461:
  2061  01BA  29C0               	goto	l2311
  2062  01BB                     u1460:
  2063  01BB                     l2309:
  2064                           
  2065                           ;main_brazo.c: 495:             _delay((unsigned long)((250)*(4000000/4000.0)));
  2066  01BB  120A  158A  268E  120A  118A  	fcall	_servo_1_3
  2067  01C0                     l2311:
  2068                           
  2069                           ;main_brazo.c: 497:             _delay((unsigned long)((250)*(4000000/4000.0)));
  2070  01C0  3034               	movlw	52
  2071  01C1  1283               	bcf	3,5	;RP0=0, select bank0
  2072  01C2  1303               	bcf	3,6	;RP1=0, select bank0
  2073  01C3  061A               	xorwf	26,w	;volatile
  2074  01C4  1D03               	btfss	3,2
  2075  01C5  29C7               	goto	u1471
  2076  01C6  29C8               	goto	u1470
  2077  01C7                     u1471:
  2078  01C7  29CD               	goto	l2315
  2079  01C8                     u1470:
  2080  01C8                     l2313:
  2081                           
  2082                           ;main_brazo.c: 498:             printf("\r 4: 90 ");
  2083  01C8  120A  158A  25C9  120A  118A  	fcall	_servo_1_4
  2084  01CD                     l2315:
  2085                           
  2086                           ;main_brazo.c: 500:             printf("\r 5: 45 ");
  2087  01CD  3035               	movlw	53
  2088  01CE  1283               	bcf	3,5	;RP0=0, select bank0
  2089  01CF  1303               	bcf	3,6	;RP1=0, select bank0
  2090  01D0  061A               	xorwf	26,w	;volatile
  2091  01D1  1D03               	btfss	3,2
  2092  01D2  29D4               	goto	u1481
  2093  01D3  29D5               	goto	u1480
  2094  01D4                     u1481:
  2095  01D4  29DA               	goto	l340
  2096  01D5                     u1480:
  2097  01D5                     l2317:
  2098                           
  2099                           ;main_brazo.c: 501:             _delay((unsigned long)((250)*(4000000/4000.0)));
  2100  01D5  120A  158A  25E5  120A  118A  	fcall	_servo_1_5
  2101  01DA                     l340:
  2102  01DA  1283               	bcf	3,5	;RP0=0, select bank0
  2103  01DB  1303               	bcf	3,6	;RP1=0, select bank0
  2104  01DC  1E8C               	btfss	12,5	;volatile
  2105  01DD  29DF               	goto	u1491
  2106  01DE  29E0               	goto	u1490
  2107  01DF                     u1491:
  2108  01DF  29DA               	goto	l340
  2109  01E0                     u1490:
  2110  01E0                     l2319:
  2111                           
  2112                           ;main_brazo.c: 505:             if (RCREG == '2'){
  2113  01E0  3062               	movlw	98
  2114  01E1  061A               	xorwf	26,w	;volatile
  2115  01E2  1D03               	btfss	3,2
  2116  01E3  29E5               	goto	u1501
  2117  01E4  29E6               	goto	u1500
  2118  01E5                     u1501:
  2119  01E5  2AC1               	goto	l2359
  2120  01E6                     u1500:
  2121  01E6                     l2321:
  2122                           
  2123                           ;main_brazo.c: 506:                 servo_3_2();
  2124  01E6  3000               	movlw	low (STR_9| (0+32768))
  2125  01E7  00A6               	movwf	printf@f
  2126  01E8  3088               	movlw	high (STR_9| (0+32768))
  2127  01E9  00A7               	movwf	printf@f+1
  2128  01EA  120A  158A  26E5  120A  118A  	fcall	_printf
  2129  01EF                     l2323:
  2130                           
  2131                           ;main_brazo.c: 507:             }
  2132  01EF  3002               	movlw	2
  2133  01F0  1283               	bcf	3,5	;RP0=0, select bank0
  2134  01F1  1303               	bcf	3,6	;RP1=0, select bank0
  2135  01F2  00B2               	movwf	??_mensaje+2
  2136  01F3  3045               	movlw	69
  2137  01F4  00B1               	movwf	??_mensaje+1
  2138  01F5  30A9               	movlw	169
  2139  01F6  00B0               	movwf	??_mensaje
  2140  01F7                     u2467:
  2141  01F7  0BB0               	decfsz	??_mensaje,f
  2142  01F8  29F7               	goto	u2467
  2143  01F9  0BB1               	decfsz	??_mensaje+1,f
  2144  01FA  29F7               	goto	u2467
  2145  01FB  0BB2               	decfsz	??_mensaje+2,f
  2146  01FC  29F7               	goto	u2467
  2147  01FD                     l2325:
  2148                           
  2149                           ;main_brazo.c: 508:             if (RCREG == '3'){
  2150  01FD  301F               	movlw	low (STR_10| (0+32768))
  2151  01FE  1283               	bcf	3,5	;RP0=0, select bank0
  2152  01FF  1303               	bcf	3,6	;RP1=0, select bank0
  2153  0200  00A6               	movwf	printf@f
  2154  0201  3089               	movlw	high (STR_10| (0+32768))
  2155  0202  00A7               	movwf	printf@f+1
  2156  0203  120A  158A  26E5  120A  118A  	fcall	_printf
  2157                           
  2158                           ;main_brazo.c: 509:                 servo_3_3();
  2159  0208  3002               	movlw	2
  2160  0209  1283               	bcf	3,5	;RP0=0, select bank0
  2161  020A  1303               	bcf	3,6	;RP1=0, select bank0
  2162  020B  00B2               	movwf	??_mensaje+2
  2163  020C  3045               	movlw	69
  2164  020D  00B1               	movwf	??_mensaje+1
  2165  020E  30A9               	movlw	169
  2166  020F  00B0               	movwf	??_mensaje
  2167  0210                     u2477:
  2168  0210  0BB0               	decfsz	??_mensaje,f
  2169  0211  2A10               	goto	u2477
  2170  0212  0BB1               	decfsz	??_mensaje+1,f
  2171  0213  2A10               	goto	u2477
  2172  0214  0BB2               	decfsz	??_mensaje+2,f
  2173  0215  2A10               	goto	u2477
  2174  0216                     l2327:
  2175                           
  2176                           ;main_brazo.c: 510:             }
  2177  0216  3015               	movlw	low (STR_11| (0+32768))
  2178  0217  1283               	bcf	3,5	;RP0=0, select bank0
  2179  0218  1303               	bcf	3,6	;RP1=0, select bank0
  2180  0219  00A6               	movwf	printf@f
  2181  021A  3089               	movlw	high (STR_11| (0+32768))
  2182  021B  00A7               	movwf	printf@f+1
  2183  021C  120A  158A  26E5  120A  118A  	fcall	_printf
  2184  0221                     l2329:
  2185                           
  2186                           ;main_brazo.c: 511:             if (RCREG == '4'){
  2187  0221  3002               	movlw	2
  2188  0222  1283               	bcf	3,5	;RP0=0, select bank0
  2189  0223  1303               	bcf	3,6	;RP1=0, select bank0
  2190  0224  00B2               	movwf	??_mensaje+2
  2191  0225  3045               	movlw	69
  2192  0226  00B1               	movwf	??_mensaje+1
  2193  0227  30A9               	movlw	169
  2194  0228  00B0               	movwf	??_mensaje
  2195  0229                     u2487:
  2196  0229  0BB0               	decfsz	??_mensaje,f
  2197  022A  2A29               	goto	u2487
  2198  022B  0BB1               	decfsz	??_mensaje+1,f
  2199  022C  2A29               	goto	u2487
  2200  022D  0BB2               	decfsz	??_mensaje+2,f
  2201  022E  2A29               	goto	u2487
  2202                           
  2203                           ;main_brazo.c: 512:                 servo_3_4();
  2204  022F  303B               	movlw	low (STR_12| (0+32768))
  2205  0230  1283               	bcf	3,5	;RP0=0, select bank0
  2206  0231  1303               	bcf	3,6	;RP1=0, select bank0
  2207  0232  00A6               	movwf	printf@f
  2208  0233  3089               	movlw	high (STR_12| (0+32768))
  2209  0234  00A7               	movwf	printf@f+1
  2210  0235  120A  158A  26E5  120A  118A  	fcall	_printf
  2211  023A                     l2331:
  2212                           
  2213                           ;main_brazo.c: 513:             }
  2214  023A  3002               	movlw	2
  2215  023B  1283               	bcf	3,5	;RP0=0, select bank0
  2216  023C  1303               	bcf	3,6	;RP1=0, select bank0
  2217  023D  00B2               	movwf	??_mensaje+2
  2218  023E  3045               	movlw	69
  2219  023F  00B1               	movwf	??_mensaje+1
  2220  0240  30A9               	movlw	169
  2221  0241  00B0               	movwf	??_mensaje
  2222  0242                     u2497:
  2223  0242  0BB0               	decfsz	??_mensaje,f
  2224  0243  2A42               	goto	u2497
  2225  0244  0BB1               	decfsz	??_mensaje+1,f
  2226  0245  2A42               	goto	u2497
  2227  0246  0BB2               	decfsz	??_mensaje+2,f
  2228  0247  2A42               	goto	u2497
  2229  0248                     l2333:
  2230                           
  2231                           ;main_brazo.c: 514:             if (RCREG == '5'){
  2232  0248  3029               	movlw	low (STR_13| (0+32768))
  2233  0249  1283               	bcf	3,5	;RP0=0, select bank0
  2234  024A  1303               	bcf	3,6	;RP1=0, select bank0
  2235  024B  00A6               	movwf	printf@f
  2236  024C  3089               	movlw	high (STR_13| (0+32768))
  2237  024D  00A7               	movwf	printf@f+1
  2238  024E  120A  158A  26E5  120A  118A  	fcall	_printf
  2239                           
  2240                           ;main_brazo.c: 515:                 servo_3_5();
  2241  0253  3002               	movlw	2
  2242  0254  1283               	bcf	3,5	;RP0=0, select bank0
  2243  0255  1303               	bcf	3,6	;RP1=0, select bank0
  2244  0256  00B2               	movwf	??_mensaje+2
  2245  0257  3045               	movlw	69
  2246  0258  00B1               	movwf	??_mensaje+1
  2247  0259  30A9               	movlw	169
  2248  025A  00B0               	movwf	??_mensaje
  2249  025B                     u2507:
  2250  025B  0BB0               	decfsz	??_mensaje,f
  2251  025C  2A5B               	goto	u2507
  2252  025D  0BB1               	decfsz	??_mensaje+1,f
  2253  025E  2A5B               	goto	u2507
  2254  025F  0BB2               	decfsz	??_mensaje+2,f
  2255  0260  2A5B               	goto	u2507
  2256  0261                     l2335:
  2257                           
  2258                           ;main_brazo.c: 516:             }
  2259  0261  3032               	movlw	low (STR_14| (0+32768))
  2260  0262  1283               	bcf	3,5	;RP0=0, select bank0
  2261  0263  1303               	bcf	3,6	;RP1=0, select bank0
  2262  0264  00A6               	movwf	printf@f
  2263  0265  3089               	movlw	high (STR_14| (0+32768))
  2264  0266  00A7               	movwf	printf@f+1
  2265  0267  120A  158A  26E5  120A  118A  	fcall	_printf
  2266  026C                     l2337:
  2267                           
  2268                           ;main_brazo.c: 517:             while (RCIF == 0);
  2269  026C  3002               	movlw	2
  2270  026D  1283               	bcf	3,5	;RP0=0, select bank0
  2271  026E  1303               	bcf	3,6	;RP1=0, select bank0
  2272  026F  00B2               	movwf	??_mensaje+2
  2273  0270  3045               	movlw	69
  2274  0271  00B1               	movwf	??_mensaje+1
  2275  0272  30A9               	movlw	169
  2276  0273  00B0               	movwf	??_mensaje
  2277  0274                     u2517:
  2278  0274  0BB0               	decfsz	??_mensaje,f
  2279  0275  2A74               	goto	u2517
  2280  0276  0BB1               	decfsz	??_mensaje+1,f
  2281  0277  2A74               	goto	u2517
  2282  0278  0BB2               	decfsz	??_mensaje+2,f
  2283  0279  2A74               	goto	u2517
  2284  027A                     l2339:
  2285                           
  2286                           ;main_brazo.c: 518:         }
  2287  027A  3031               	movlw	49
  2288  027B  1283               	bcf	3,5	;RP0=0, select bank0
  2289  027C  1303               	bcf	3,6	;RP1=0, select bank0
  2290  027D  061A               	xorwf	26,w	;volatile
  2291  027E  1D03               	btfss	3,2
  2292  027F  2A81               	goto	u1511
  2293  0280  2A82               	goto	u1510
  2294  0281                     u1511:
  2295  0281  2A87               	goto	l2343
  2296  0282                     u1510:
  2297  0282                     l2341:
  2298                           
  2299                           ;main_brazo.c: 519:     }
  2300  0282  120A  158A  2549  120A  118A  	fcall	_servo_2_1
  2301  0287                     l2343:
  2302                           
  2303                           ;main_brazo.c: 521:         printf("\r Hacia donde desea mover el motor? \r");
  2304  0287  3032               	movlw	50
  2305  0288  1283               	bcf	3,5	;RP0=0, select bank0
  2306  0289  1303               	bcf	3,6	;RP1=0, select bank0
  2307  028A  061A               	xorwf	26,w	;volatile
  2308  028B  1D03               	btfss	3,2
  2309  028C  2A8E               	goto	u1521
  2310  028D  2A8F               	goto	u1520
  2311  028E                     u1521:
  2312  028E  2A94               	goto	l2347
  2313  028F                     u1520:
  2314  028F                     l2345:
  2315                           
  2316                           ;main_brazo.c: 522:         _delay((unsigned long)((250)*(4000000/4000.0)));
  2317  028F  120A  158A  2595  120A  118A  	fcall	_servo_2_2
  2318  0294                     l2347:
  2319                           
  2320                           ;main_brazo.c: 524:         _delay((unsigned long)((250)*(4000000/4000.0)));
  2321  0294  3033               	movlw	51
  2322  0295  1283               	bcf	3,5	;RP0=0, select bank0
  2323  0296  1303               	bcf	3,6	;RP1=0, select bank0
  2324  0297  061A               	xorwf	26,w	;volatile
  2325  0298  1D03               	btfss	3,2
  2326  0299  2A9B               	goto	u1531
  2327  029A  2A9C               	goto	u1530
  2328  029B                     u1531:
  2329  029B  2AA1               	goto	l2351
  2330  029C                     u1530:
  2331  029C                     l2349:
  2332                           
  2333                           ;main_brazo.c: 525:         printf("\r 2: Izquierda");
  2334  029C  120A  158A  26AB  120A  118A  	fcall	_servo_2_3
  2335  02A1                     l2351:
  2336                           
  2337                           ;main_brazo.c: 527:         printf("\r 3: Detener");
  2338  02A1  3034               	movlw	52
  2339  02A2  1283               	bcf	3,5	;RP0=0, select bank0
  2340  02A3  1303               	bcf	3,6	;RP1=0, select bank0
  2341  02A4  061A               	xorwf	26,w	;volatile
  2342  02A5  1D03               	btfss	3,2
  2343  02A6  2AA8               	goto	u1541
  2344  02A7  2AA9               	goto	u1540
  2345  02A8                     u1541:
  2346  02A8  2AAE               	goto	l2355
  2347  02A9                     u1540:
  2348  02A9                     l2353:
  2349                           
  2350                           ;main_brazo.c: 528:         _delay((unsigned long)((250)*(4000000/4000.0)));
  2351  02A9  120A  158A  2601  120A  118A  	fcall	_servo_2_4
  2352  02AE                     l2355:
  2353                           
  2354                           ;main_brazo.c: 530:         if (RCREG == '1'){
  2355  02AE  3035               	movlw	53
  2356  02AF  1283               	bcf	3,5	;RP0=0, select bank0
  2357  02B0  1303               	bcf	3,6	;RP1=0, select bank0
  2358  02B1  061A               	xorwf	26,w	;volatile
  2359  02B2  1D03               	btfss	3,2
  2360  02B3  2AB5               	goto	u1551
  2361  02B4  2AB6               	goto	u1550
  2362  02B5                     u1551:
  2363  02B5  2ABB               	goto	l349
  2364  02B6                     u1550:
  2365  02B6                     l2357:
  2366                           
  2367                           ;main_brazo.c: 531:             motor_1();
  2368  02B6  120A  158A  261D  120A  118A  	fcall	_servo_2_5
  2369  02BB                     l349:
  2370  02BB  1283               	bcf	3,5	;RP0=0, select bank0
  2371  02BC  1303               	bcf	3,6	;RP1=0, select bank0
  2372  02BD  1E8C               	btfss	12,5	;volatile
  2373  02BE  2AC0               	goto	u1561
  2374  02BF  2AC1               	goto	u1560
  2375  02C0                     u1561:
  2376  02C0  2ABB               	goto	l349
  2377  02C1                     u1560:
  2378  02C1                     l2359:
  2379                           
  2380                           ;main_brazo.c: 535:         }
  2381  02C1  3063               	movlw	99
  2382  02C2  061A               	xorwf	26,w	;volatile
  2383  02C3  1D03               	btfss	3,2
  2384  02C4  2AC6               	goto	u1571
  2385  02C5  2AC7               	goto	u1570
  2386  02C6                     u1571:
  2387  02C6  2BA2               	goto	l2399
  2388  02C7                     u1570:
  2389  02C7                     l2361:
  2390                           
  2391                           ;main_brazo.c: 536:         if (RCREG == '3'){
  2392  02C7  3000               	movlw	low (STR_9| (0+32768))
  2393  02C8  00A6               	movwf	printf@f
  2394  02C9  3088               	movlw	high (STR_9| (0+32768))
  2395  02CA  00A7               	movwf	printf@f+1
  2396  02CB  120A  158A  26E5  120A  118A  	fcall	_printf
  2397  02D0                     l2363:
  2398                           
  2399                           ;main_brazo.c: 537:             motor_detenido();
  2400  02D0  3002               	movlw	2
  2401  02D1  1283               	bcf	3,5	;RP0=0, select bank0
  2402  02D2  1303               	bcf	3,6	;RP1=0, select bank0
  2403  02D3  00B2               	movwf	??_mensaje+2
  2404  02D4  3045               	movlw	69
  2405  02D5  00B1               	movwf	??_mensaje+1
  2406  02D6  30A9               	movlw	169
  2407  02D7  00B0               	movwf	??_mensaje
  2408  02D8                     u2527:
  2409  02D8  0BB0               	decfsz	??_mensaje,f
  2410  02D9  2AD8               	goto	u2527
  2411  02DA  0BB1               	decfsz	??_mensaje+1,f
  2412  02DB  2AD8               	goto	u2527
  2413  02DC  0BB2               	decfsz	??_mensaje+2,f
  2414  02DD  2AD8               	goto	u2527
  2415  02DE                     l2365:
  2416                           
  2417                           ;main_brazo.c: 538:         }
  2418  02DE  301F               	movlw	low (STR_10| (0+32768))
  2419  02DF  1283               	bcf	3,5	;RP0=0, select bank0
  2420  02E0  1303               	bcf	3,6	;RP1=0, select bank0
  2421  02E1  00A6               	movwf	printf@f
  2422  02E2  3089               	movlw	high (STR_10| (0+32768))
  2423  02E3  00A7               	movwf	printf@f+1
  2424  02E4  120A  158A  26E5  120A  118A  	fcall	_printf
  2425                           
  2426                           ;main_brazo.c: 539:     }
  2427  02E9  3002               	movlw	2
  2428  02EA  1283               	bcf	3,5	;RP0=0, select bank0
  2429  02EB  1303               	bcf	3,6	;RP1=0, select bank0
  2430  02EC  00B2               	movwf	??_mensaje+2
  2431  02ED  3045               	movlw	69
  2432  02EE  00B1               	movwf	??_mensaje+1
  2433  02EF  30A9               	movlw	169
  2434  02F0  00B0               	movwf	??_mensaje
  2435  02F1                     u2537:
  2436  02F1  0BB0               	decfsz	??_mensaje,f
  2437  02F2  2AF1               	goto	u2537
  2438  02F3  0BB1               	decfsz	??_mensaje+1,f
  2439  02F4  2AF1               	goto	u2537
  2440  02F5  0BB2               	decfsz	??_mensaje+2,f
  2441  02F6  2AF1               	goto	u2537
  2442  02F7                     l2367:
  2443                           
  2444                           ;main_brazo.c: 540: 
  2445  02F7  3015               	movlw	low (STR_11| (0+32768))
  2446  02F8  1283               	bcf	3,5	;RP0=0, select bank0
  2447  02F9  1303               	bcf	3,6	;RP1=0, select bank0
  2448  02FA  00A6               	movwf	printf@f
  2449  02FB  3089               	movlw	high (STR_11| (0+32768))
  2450  02FC  00A7               	movwf	printf@f+1
  2451  02FD  120A  158A  26E5  120A  118A  	fcall	_printf
  2452  0302                     l2369:
  2453                           
  2454                           ;main_brazo.c: 541: 
  2455  0302  3002               	movlw	2
  2456  0303  1283               	bcf	3,5	;RP0=0, select bank0
  2457  0304  1303               	bcf	3,6	;RP1=0, select bank0
  2458  0305  00B2               	movwf	??_mensaje+2
  2459  0306  3045               	movlw	69
  2460  0307  00B1               	movwf	??_mensaje+1
  2461  0308  30A9               	movlw	169
  2462  0309  00B0               	movwf	??_mensaje
  2463  030A                     u2547:
  2464  030A  0BB0               	decfsz	??_mensaje,f
  2465  030B  2B0A               	goto	u2547
  2466  030C  0BB1               	decfsz	??_mensaje+1,f
  2467  030D  2B0A               	goto	u2547
  2468  030E  0BB2               	decfsz	??_mensaje+2,f
  2469  030F  2B0A               	goto	u2547
  2470                           
  2471                           ;main_brazo.c: 542: 
  2472  0310  303B               	movlw	low (STR_12| (0+32768))
  2473  0311  1283               	bcf	3,5	;RP0=0, select bank0
  2474  0312  1303               	bcf	3,6	;RP1=0, select bank0
  2475  0313  00A6               	movwf	printf@f
  2476  0314  3089               	movlw	high (STR_12| (0+32768))
  2477  0315  00A7               	movwf	printf@f+1
  2478  0316  120A  158A  26E5  120A  118A  	fcall	_printf
  2479  031B                     l2371:
  2480                           
  2481                           ;main_brazo.c: 543: 
  2482  031B  3002               	movlw	2
  2483  031C  1283               	bcf	3,5	;RP0=0, select bank0
  2484  031D  1303               	bcf	3,6	;RP1=0, select bank0
  2485  031E  00B2               	movwf	??_mensaje+2
  2486  031F  3045               	movlw	69
  2487  0320  00B1               	movwf	??_mensaje+1
  2488  0321  30A9               	movlw	169
  2489  0322  00B0               	movwf	??_mensaje
  2490  0323                     u2557:
  2491  0323  0BB0               	decfsz	??_mensaje,f
  2492  0324  2B23               	goto	u2557
  2493  0325  0BB1               	decfsz	??_mensaje+1,f
  2494  0326  2B23               	goto	u2557
  2495  0327  0BB2               	decfsz	??_mensaje+2,f
  2496  0328  2B23               	goto	u2557
  2497  0329                     l2373:
  2498                           
  2499                           ;main_brazo.c: 544: 
  2500  0329  3029               	movlw	low (STR_13| (0+32768))
  2501  032A  1283               	bcf	3,5	;RP0=0, select bank0
  2502  032B  1303               	bcf	3,6	;RP1=0, select bank0
  2503  032C  00A6               	movwf	printf@f
  2504  032D  3089               	movlw	high (STR_13| (0+32768))
  2505  032E  00A7               	movwf	printf@f+1
  2506  032F  120A  158A  26E5  120A  118A  	fcall	_printf
  2507                           
  2508                           ;main_brazo.c: 545: 
  2509  0334  3002               	movlw	2
  2510  0335  1283               	bcf	3,5	;RP0=0, select bank0
  2511  0336  1303               	bcf	3,6	;RP1=0, select bank0
  2512  0337  00B2               	movwf	??_mensaje+2
  2513  0338  3045               	movlw	69
  2514  0339  00B1               	movwf	??_mensaje+1
  2515  033A  30A9               	movlw	169
  2516  033B  00B0               	movwf	??_mensaje
  2517  033C                     u2567:
  2518  033C  0BB0               	decfsz	??_mensaje,f
  2519  033D  2B3C               	goto	u2567
  2520  033E  0BB1               	decfsz	??_mensaje+1,f
  2521  033F  2B3C               	goto	u2567
  2522  0340  0BB2               	decfsz	??_mensaje+2,f
  2523  0341  2B3C               	goto	u2567
  2524  0342                     l2375:
  2525                           
  2526                           ;main_brazo.c: 546:     else{
  2527  0342  3032               	movlw	low (STR_14| (0+32768))
  2528  0343  1283               	bcf	3,5	;RP0=0, select bank0
  2529  0344  1303               	bcf	3,6	;RP1=0, select bank0
  2530  0345  00A6               	movwf	printf@f
  2531  0346  3089               	movlw	high (STR_14| (0+32768))
  2532  0347  00A7               	movwf	printf@f+1
  2533  0348  120A  158A  26E5  120A  118A  	fcall	_printf
  2534  034D                     l2377:
  2535                           
  2536                           ;main_brazo.c: 547:         (0);
  2537  034D  3002               	movlw	2
  2538  034E  1283               	bcf	3,5	;RP0=0, select bank0
  2539  034F  1303               	bcf	3,6	;RP1=0, select bank0
  2540  0350  00B2               	movwf	??_mensaje+2
  2541  0351  3045               	movlw	69
  2542  0352  00B1               	movwf	??_mensaje+1
  2543  0353  30A9               	movlw	169
  2544  0354  00B0               	movwf	??_mensaje
  2545  0355                     u2577:
  2546  0355  0BB0               	decfsz	??_mensaje,f
  2547  0356  2B55               	goto	u2577
  2548  0357  0BB1               	decfsz	??_mensaje+1,f
  2549  0358  2B55               	goto	u2577
  2550  0359  0BB2               	decfsz	??_mensaje+2,f
  2551  035A  2B55               	goto	u2577
  2552  035B                     l2379:
  2553                           
  2554                           ;main_brazo.c: 548:     }
  2555  035B  3031               	movlw	49
  2556  035C  1283               	bcf	3,5	;RP0=0, select bank0
  2557  035D  1303               	bcf	3,6	;RP1=0, select bank0
  2558  035E  061A               	xorwf	26,w	;volatile
  2559  035F  1D03               	btfss	3,2
  2560  0360  2B62               	goto	u1581
  2561  0361  2B63               	goto	u1580
  2562  0362                     u1581:
  2563  0362  2B68               	goto	l2383
  2564  0363                     u1580:
  2565  0363                     l2381:
  2566                           
  2567                           ;main_brazo.c: 549:     return;
  2568  0363  120A  158A  2562  120A  118A  	fcall	_servo_3_1
  2569  0368                     l2383:
  2570                           
  2571                           ;main_brazo.c: 551: 
  2572  0368  3032               	movlw	50
  2573  0369  1283               	bcf	3,5	;RP0=0, select bank0
  2574  036A  1303               	bcf	3,6	;RP1=0, select bank0
  2575  036B  061A               	xorwf	26,w	;volatile
  2576  036C  1D03               	btfss	3,2
  2577  036D  2B6F               	goto	u1591
  2578  036E  2B70               	goto	u1590
  2579  036F                     u1591:
  2580  036F  2B75               	goto	l2387
  2581  0370                     u1590:
  2582  0370                     l2385:
  2583                           
  2584                           ;main_brazo.c: 552: 
  2585  0370  120A  158A  25AF  120A  118A  	fcall	_servo_3_2
  2586  0375                     l2387:
  2587                           
  2588                           ;main_brazo.c: 554: 
  2589  0375  3033               	movlw	51
  2590  0376  1283               	bcf	3,5	;RP0=0, select bank0
  2591  0377  1303               	bcf	3,6	;RP1=0, select bank0
  2592  0378  061A               	xorwf	26,w	;volatile
  2593  0379  1D03               	btfss	3,2
  2594  037A  2B7C               	goto	u1601
  2595  037B  2B7D               	goto	u1600
  2596  037C                     u1601:
  2597  037C  2B82               	goto	l2391
  2598  037D                     u1600:
  2599  037D                     l2389:
  2600                           
  2601                           ;main_brazo.c: 555: void setup(void){
  2602  037D  120A  158A  26C8  120A  118A  	fcall	_servo_3_3
  2603  0382                     l2391:
  2604                           
  2605                           ;main_brazo.c: 557:     TRISBbits.TRISB0 = 1;
  2606  0382  3034               	movlw	52
  2607  0383  1283               	bcf	3,5	;RP0=0, select bank0
  2608  0384  1303               	bcf	3,6	;RP1=0, select bank0
  2609  0385  061A               	xorwf	26,w	;volatile
  2610  0386  1D03               	btfss	3,2
  2611  0387  2B89               	goto	u1611
  2612  0388  2B8A               	goto	u1610
  2613  0389                     u1611:
  2614  0389  2B8F               	goto	l2395
  2615  038A                     u1610:
  2616  038A                     l2393:
  2617                           
  2618                           ;main_brazo.c: 558:     TRISBbits.TRISB1 = 1;
  2619  038A  120A  158A  2639  120A  118A  	fcall	_servo_3_4
  2620  038F                     l2395:
  2621                           
  2622                           ;main_brazo.c: 560:     TRISBbits.TRISB3 = 1;
  2623  038F  3035               	movlw	53
  2624  0390  1283               	bcf	3,5	;RP0=0, select bank0
  2625  0391  1303               	bcf	3,6	;RP1=0, select bank0
  2626  0392  061A               	xorwf	26,w	;volatile
  2627  0393  1D03               	btfss	3,2
  2628  0394  2B96               	goto	u1621
  2629  0395  2B97               	goto	u1620
  2630  0396                     u1621:
  2631  0396  2B9C               	goto	l358
  2632  0397                     u1620:
  2633  0397                     l2397:
  2634                           
  2635                           ;main_brazo.c: 561:     TRISBbits.TRISB4 = 1;
  2636  0397  120A  158A  2655  120A  118A  	fcall	_servo_3_5
  2637  039C                     l358:
  2638  039C  1283               	bcf	3,5	;RP0=0, select bank0
  2639  039D  1303               	bcf	3,6	;RP1=0, select bank0
  2640  039E  1E8C               	btfss	12,5	;volatile
  2641  039F  2BA1               	goto	u1631
  2642  03A0  2BA2               	goto	u1630
  2643  03A1                     u1631:
  2644  03A1  2B9C               	goto	l358
  2645  03A2                     u1630:
  2646  03A2                     l2399:
  2647                           
  2648                           ;main_brazo.c: 566:     ANSELbits.ANS2 = 1;
  2649  03A2  3032               	movlw	50
  2650  03A3  061A               	xorwf	26,w	;volatile
  2651  03A4  1D03               	btfss	3,2
  2652  03A5  2BA7               	goto	u1641
  2653  03A6  2BA8               	goto	u1640
  2654  03A7                     u1641:
  2655  03A7  2C35               	goto	l369
  2656  03A8                     u1640:
  2657  03A8                     l2401:
  2658                           
  2659                           ;main_brazo.c: 567:     ANSELbits.ANS3 = 1;
  2660  03A8  3037               	movlw	low (STR_27| (0+32768))
  2661  03A9  00A6               	movwf	printf@f
  2662  03AA  3088               	movlw	high (STR_27| (0+32768))
  2663  03AB  00A7               	movwf	printf@f+1
  2664  03AC  120A  158A  26E5  120A  118A  	fcall	_printf
  2665  03B1                     l2403:
  2666                           
  2667                           ;main_brazo.c: 568:     ANSELH = 0x00;
  2668  03B1  3002               	movlw	2
  2669  03B2  1283               	bcf	3,5	;RP0=0, select bank0
  2670  03B3  1303               	bcf	3,6	;RP1=0, select bank0
  2671  03B4  00B2               	movwf	??_mensaje+2
  2672  03B5  3045               	movlw	69
  2673  03B6  00B1               	movwf	??_mensaje+1
  2674  03B7  30A9               	movlw	169
  2675  03B8  00B0               	movwf	??_mensaje
  2676  03B9                     u2587:
  2677  03B9  0BB0               	decfsz	??_mensaje,f
  2678  03BA  2BB9               	goto	u2587
  2679  03BB  0BB1               	decfsz	??_mensaje+1,f
  2680  03BC  2BB9               	goto	u2587
  2681  03BD  0BB2               	decfsz	??_mensaje+2,f
  2682  03BE  2BB9               	goto	u2587
  2683  03BF                     l2405:
  2684                           
  2685                           ;main_brazo.c: 569:     TRISAbits.TRISA0 = 1;
  2686  03BF  30FB               	movlw	low (STR_28| (0+32768))
  2687  03C0  1283               	bcf	3,5	;RP0=0, select bank0
  2688  03C1  1303               	bcf	3,6	;RP1=0, select bank0
  2689  03C2  00A6               	movwf	printf@f
  2690  03C3  3088               	movlw	high (STR_28| (0+32768))
  2691  03C4  00A7               	movwf	printf@f+1
  2692  03C5  120A  158A  26E5  120A  118A  	fcall	_printf
  2693                           
  2694                           ;main_brazo.c: 570:     TRISAbits.TRISA1 = 1;
  2695  03CA  3002               	movlw	2
  2696  03CB  1283               	bcf	3,5	;RP0=0, select bank0
  2697  03CC  1303               	bcf	3,6	;RP1=0, select bank0
  2698  03CD  00B2               	movwf	??_mensaje+2
  2699  03CE  3045               	movlw	69
  2700  03CF  00B1               	movwf	??_mensaje+1
  2701  03D0  30A9               	movlw	169
  2702  03D1  00B0               	movwf	??_mensaje
  2703  03D2                     u2597:
  2704  03D2  0BB0               	decfsz	??_mensaje,f
  2705  03D3  2BD2               	goto	u2597
  2706  03D4  0BB1               	decfsz	??_mensaje+1,f
  2707  03D5  2BD2               	goto	u2597
  2708  03D6  0BB2               	decfsz	??_mensaje+2,f
  2709  03D7  2BD2               	goto	u2597
  2710  03D8                     l2407:
  2711                           
  2712                           ;main_brazo.c: 571:     TRISAbits.TRISA2 = 1;
  2713  03D8  30C5               	movlw	low (STR_29| (0+32768))
  2714  03D9  1283               	bcf	3,5	;RP0=0, select bank0
  2715  03DA  1303               	bcf	3,6	;RP1=0, select bank0
  2716  03DB  00A6               	movwf	printf@f
  2717  03DC  3088               	movlw	high (STR_29| (0+32768))
  2718  03DD  00A7               	movwf	printf@f+1
  2719  03DE  120A  158A  26E5  120A  118A  	fcall	_printf
  2720  03E3                     l2409:
  2721                           
  2722                           ;main_brazo.c: 572:     TRISAbits.TRISA3 = 1;
  2723  03E3  3002               	movlw	2
  2724  03E4  1283               	bcf	3,5	;RP0=0, select bank0
  2725  03E5  1303               	bcf	3,6	;RP1=0, select bank0
  2726  03E6  00B2               	movwf	??_mensaje+2
  2727  03E7  3045               	movlw	69
  2728  03E8  00B1               	movwf	??_mensaje+1
  2729  03E9  30A9               	movlw	169
  2730  03EA  00B0               	movwf	??_mensaje
  2731  03EB                     u2607:
  2732  03EB  0BB0               	decfsz	??_mensaje,f
  2733  03EC  2BEB               	goto	u2607
  2734  03ED  0BB1               	decfsz	??_mensaje+1,f
  2735  03EE  2BEB               	goto	u2607
  2736  03EF  0BB2               	decfsz	??_mensaje+2,f
  2737  03F0  2BEB               	goto	u2607
  2738                           
  2739                           ;main_brazo.c: 573: 
  2740  03F1  3008               	movlw	low (STR_30| (0+32768))
  2741  03F2  1283               	bcf	3,5	;RP0=0, select bank0
  2742  03F3  1303               	bcf	3,6	;RP1=0, select bank0
  2743  03F4  00A6               	movwf	printf@f
  2744  03F5  3089               	movlw	high (STR_30| (0+32768))
  2745  03F6  00A7               	movwf	printf@f+1
  2746  03F7  120A  158A  26E5  120A  118A  	fcall	_printf
  2747  03FC                     l2411:
  2748                           
  2749                           ;main_brazo.c: 574: 
  2750  03FC  3002               	movlw	2
  2751  03FD  1283               	bcf	3,5	;RP0=0, select bank0
  2752  03FE  1303               	bcf	3,6	;RP1=0, select bank0
  2753  03FF  00B2               	movwf	??_mensaje+2
  2754  0400  3045               	movlw	69
  2755  0401  00B1               	movwf	??_mensaje+1
  2756  0402  30A9               	movlw	169
  2757  0403  00B0               	movwf	??_mensaje
  2758  0404                     u2617:
  2759  0404  0BB0               	decfsz	??_mensaje,f
  2760  0405  2C04               	goto	u2617
  2761  0406  0BB1               	decfsz	??_mensaje+1,f
  2762  0407  2C04               	goto	u2617
  2763  0408  0BB2               	decfsz	??_mensaje+2,f
  2764  0409  2C04               	goto	u2617
  2765  040A                     l362:	
  2766                           ;main_brazo.c: 575: 
  2767                           
  2768  040A  1283               	bcf	3,5	;RP0=0, select bank0
  2769  040B  1303               	bcf	3,6	;RP1=0, select bank0
  2770  040C  1E8C               	btfss	12,5	;volatile
  2771  040D  2C0F               	goto	u1651
  2772  040E  2C10               	goto	u1650
  2773  040F                     u1651:
  2774  040F  2C0A               	goto	l362
  2775  0410                     u1650:
  2776  0410                     l2413:
  2777                           
  2778                           ;main_brazo.c: 576: 
  2779  0410  3031               	movlw	49
  2780  0411  061A               	xorwf	26,w	;volatile
  2781  0412  1D03               	btfss	3,2
  2782  0413  2C15               	goto	u1661
  2783  0414  2C16               	goto	u1660
  2784  0415                     u1661:
  2785  0415  2C1B               	goto	l2417
  2786  0416                     u1660:
  2787  0416                     l2415:
  2788                           
  2789                           ;main_brazo.c: 577:     TRISBbits.TRISB5 = 0;
  2790  0416  120A  158A  24FE  120A  118A  	fcall	_motor_1
  2791  041B                     l2417:
  2792                           
  2793                           ;main_brazo.c: 579:     TRISEbits.TRISE0 = 0;
  2794  041B  3032               	movlw	50
  2795  041C  1283               	bcf	3,5	;RP0=0, select bank0
  2796  041D  1303               	bcf	3,6	;RP1=0, select bank0
  2797  041E  061A               	xorwf	26,w	;volatile
  2798  041F  1D03               	btfss	3,2
  2799  0420  2C22               	goto	u1671
  2800  0421  2C23               	goto	u1670
  2801  0422                     u1671:
  2802  0422  2C28               	goto	l2421
  2803  0423                     u1670:
  2804  0423                     l2419:
  2805                           
  2806                           ;main_brazo.c: 580:     TRISEbits.TRISE1 = 0;
  2807  0423  120A  158A  2517  120A  118A  	fcall	_motor_2
  2808  0428                     l2421:
  2809                           
  2810                           ;main_brazo.c: 582: 
  2811  0428  3033               	movlw	51
  2812  0429  1283               	bcf	3,5	;RP0=0, select bank0
  2813  042A  1303               	bcf	3,6	;RP1=0, select bank0
  2814  042B  061A               	xorwf	26,w	;volatile
  2815  042C  1D03               	btfss	3,2
  2816  042D  2C2F               	goto	u1681
  2817  042E  2C30               	goto	u1680
  2818  042F                     u1681:
  2819  042F  2C35               	goto	l369
  2820  0430                     u1680:
  2821  0430                     l2423:
  2822                           
  2823                           ;main_brazo.c: 583:     TRISDbits.TRISD0 = 0;
  2824  0430  120A  158A  235A  120A  118A  	fcall	_motor_detenido
  2825  0435                     l369:
  2826  0435  0008               	return
  2827  0436                     __end_of_mensaje:
  2828                           
  2829                           	psect	text3
  2830  0E55                     __ptext3:	
  2831 ;; *************** function _servo_3_5 *****************
  2832 ;; Defined at:
  2833 ;;		line 424 in file "main_brazo.c"
  2834 ;; Parameters:    Size  Location     Type
  2835 ;;		None
  2836 ;; Auto vars:     Size  Location     Type
  2837 ;;		None
  2838 ;; Return value:  Size  Location     Type
  2839 ;;                  1    wreg      void 
  2840 ;; Registers used:
  2841 ;;		wreg
  2842 ;; Tracked objects:
  2843 ;;		On entry : 0/0
  2844 ;;		On exit  : 0/0
  2845 ;;		Unchanged: 0/0
  2846 ;; Data sizes:     COMMON   BANK0   BANK1   BANK3   BANK2
  2847 ;;      Params:         0       0       0       0       0
  2848 ;;      Locals:         0       0       0       0       0
  2849 ;;      Temps:          0       2       0       0       0
  2850 ;;      Totals:         0       2       0       0       0
  2851 ;;Total ram usage:        2 bytes
  2852 ;; Hardware stack levels used:    1
  2853 ;; Hardware stack levels required when called:    3
  2854 ;; This function calls:
  2855 ;;		Nothing
  2856 ;; This function is called by:
  2857 ;;		_mensaje
  2858 ;; This function uses a non-reentrant model
  2859 ;;
  2860                           
  2861                           
  2862                           ;psect for function _servo_3_5
  2863  0E55                     _servo_3_5:
  2864  0E55                     l2039:	
  2865                           ;incstack = 0
  2866                           ; Regs used in _servo_3_5: [wreg]
  2867                           
  2868                           
  2869                           ;main_brazo.c: 425:         printf("\r b. Servo 2");
  2870  0E55  1283               	bcf	3,5	;RP0=0, select bank0
  2871  0E56  1303               	bcf	3,6	;RP1=0, select bank0
  2872  0E57  1508               	bsf	8,2	;volatile
  2873  0E58                     l2041:
  2874                           
  2875                           ;main_brazo.c: 426:         _delay((unsigned long)((250)*(4000000/4000.0)));
  2876  0E58  3003               	movlw	3
  2877  0E59  1283               	bcf	3,5	;RP0=0, select bank0
  2878  0E5A  1303               	bcf	3,6	;RP1=0, select bank0
  2879  0E5B  00A6               	movwf	??_servo_3_5+1
  2880  0E5C  3097               	movlw	151
  2881  0E5D  00A5               	movwf	??_servo_3_5
  2882  0E5E                     u2627:
  2883  0E5E  0BA5               	decfsz	??_servo_3_5,f
  2884  0E5F  2E5E               	goto	u2627
  2885  0E60  0BA6               	decfsz	??_servo_3_5+1,f
  2886  0E61  2E5E               	goto	u2627
  2887  0E62                     l2043:
  2888                           
  2889                           ;main_brazo.c: 427:         printf("\r c. Servo 3");
  2890  0E62  1283               	bcf	3,5	;RP0=0, select bank0
  2891  0E63  1303               	bcf	3,6	;RP1=0, select bank0
  2892  0E64  1108               	bcf	8,2	;volatile
  2893                           
  2894                           ;main_brazo.c: 428:         while (RCIF == 0);
  2895  0E65  3018               	movlw	24
  2896  0E66  1283               	bcf	3,5	;RP0=0, select bank0
  2897  0E67  1303               	bcf	3,6	;RP1=0, select bank0
  2898  0E68  00A6               	movwf	??_servo_3_5+1
  2899  0E69  305E               	movlw	94
  2900  0E6A  00A5               	movwf	??_servo_3_5
  2901  0E6B                     u2637:
  2902  0E6B  0BA5               	decfsz	??_servo_3_5,f
  2903  0E6C  2E6B               	goto	u2637
  2904  0E6D  0BA6               	decfsz	??_servo_3_5+1,f
  2905  0E6E  2E6B               	goto	u2637
  2906  0E6F  0000               	nop
  2907  0E70                     l309:
  2908  0E70  0008               	return
  2909  0E71                     __end_of_servo_3_5:
  2910                           
  2911                           	psect	text4
  2912  0E39                     __ptext4:	
  2913 ;; *************** function _servo_3_4 *****************
  2914 ;; Defined at:
  2915 ;;		line 417 in file "main_brazo.c"
  2916 ;; Parameters:    Size  Location     Type
  2917 ;;		None
  2918 ;; Auto vars:     Size  Location     Type
  2919 ;;		None
  2920 ;; Return value:  Size  Location     Type
  2921 ;;                  1    wreg      void 
  2922 ;; Registers used:
  2923 ;;		wreg
  2924 ;; Tracked objects:
  2925 ;;		On entry : 0/0
  2926 ;;		On exit  : 0/0
  2927 ;;		Unchanged: 0/0
  2928 ;; Data sizes:     COMMON   BANK0   BANK1   BANK3   BANK2
  2929 ;;      Params:         0       0       0       0       0
  2930 ;;      Locals:         0       0       0       0       0
  2931 ;;      Temps:          0       2       0       0       0
  2932 ;;      Totals:         0       2       0       0       0
  2933 ;;Total ram usage:        2 bytes
  2934 ;; Hardware stack levels used:    1
  2935 ;; Hardware stack levels required when called:    3
  2936 ;; This function calls:
  2937 ;;		Nothing
  2938 ;; This function is called by:
  2939 ;;		_mensaje
  2940 ;; This function uses a non-reentrant model
  2941 ;;
  2942                           
  2943                           
  2944                           ;psect for function _servo_3_4
  2945  0E39                     _servo_3_4:
  2946  0E39                     l2033:	
  2947                           ;incstack = 0
  2948                           ; Regs used in _servo_3_4: [wreg]
  2949                           
  2950                           
  2951                           ;main_brazo.c: 418:     while (RCIF == 0);
  2952  0E39  1283               	bcf	3,5	;RP0=0, select bank0
  2953  0E3A  1303               	bcf	3,6	;RP1=0, select bank0
  2954  0E3B  1508               	bsf	8,2	;volatile
  2955  0E3C                     l2035:
  2956                           
  2957                           ;main_brazo.c: 419:     if (RCREG == '1'){
  2958  0E3C  30F9               	movlw	249
  2959  0E3D  1283               	bcf	3,5	;RP0=0, select bank0
  2960  0E3E  1303               	bcf	3,6	;RP1=0, select bank0
  2961  0E3F  00A5               	movwf	??_servo_3_4
  2962  0E40                     u2647:
  2963  0E40  2E41               	nop2
  2964  0E41  2E42               	nop2
  2965  0E42  0BA5               	decfsz	??_servo_3_4,f
  2966  0E43  2E40               	goto	u2647
  2967  0E44  2E45               	nop2
  2968  0E45  2E46               	nop2
  2969  0E46                     l2037:
  2970                           
  2971                           ;main_brazo.c: 420:         _delay((unsigned long)((500)*(4000000/4000.0)));
  2972  0E46  1283               	bcf	3,5	;RP0=0, select bank0
  2973  0E47  1303               	bcf	3,6	;RP1=0, select bank0
  2974  0E48  1108               	bcf	8,2	;volatile
  2975                           
  2976                           ;main_brazo.c: 421:         printf("\r ¿Cual de los servos desea mover?\r");
  2977  0E49  3018               	movlw	24
  2978  0E4A  1283               	bcf	3,5	;RP0=0, select bank0
  2979  0E4B  1303               	bcf	3,6	;RP1=0, select bank0
  2980  0E4C  00A6               	movwf	??_servo_3_4+1
  2981  0E4D  30B1               	movlw	177
  2982  0E4E  00A5               	movwf	??_servo_3_4
  2983  0E4F                     u2657:
  2984  0E4F  0BA5               	decfsz	??_servo_3_4,f
  2985  0E50  2E4F               	goto	u2657
  2986  0E51  0BA6               	decfsz	??_servo_3_4+1,f
  2987  0E52  2E4F               	goto	u2657
  2988  0E53  2E54               	nop2
  2989  0E54                     l306:
  2990  0E54  0008               	return
  2991  0E55                     __end_of_servo_3_4:
  2992                           
  2993                           	psect	text5
  2994  0EC8                     __ptext5:	
  2995 ;; *************** function _servo_3_3 *****************
  2996 ;; Defined at:
  2997 ;;		line 410 in file "main_brazo.c"
  2998 ;; Parameters:    Size  Location     Type
  2999 ;;		None
  3000 ;; Auto vars:     Size  Location     Type
  3001 ;;		None
  3002 ;; Return value:  Size  Location     Type
  3003 ;;                  1    wreg      void 
  3004 ;; Registers used:
  3005 ;;		wreg
  3006 ;; Tracked objects:
  3007 ;;		On entry : 0/0
  3008 ;;		On exit  : 0/0
  3009 ;;		Unchanged: 0/0
  3010 ;; Data sizes:     COMMON   BANK0   BANK1   BANK3   BANK2
  3011 ;;      Params:         0       0       0       0       0
  3012 ;;      Locals:         0       0       0       0       0
  3013 ;;      Temps:          0       2       0       0       0
  3014 ;;      Totals:         0       2       0       0       0
  3015 ;;Total ram usage:        2 bytes
  3016 ;; Hardware stack levels used:    1
  3017 ;; Hardware stack levels required when called:    3
  3018 ;; This function calls:
  3019 ;;		Nothing
  3020 ;; This function is called by:
  3021 ;;		_mensaje
  3022 ;; This function uses a non-reentrant model
  3023 ;;
  3024                           
  3025                           
  3026                           ;psect for function _servo_3_3
  3027  0EC8                     _servo_3_3:
  3028  0EC8                     l2027:	
  3029                           ;incstack = 0
  3030                           ; Regs used in _servo_3_3: [wreg]
  3031                           
  3032                           
  3033                           ;main_brazo.c: 411:     printf("\r Que accion desea ejecutar \r");
  3034  0EC8  1283               	bcf	3,5	;RP0=0, select bank0
  3035  0EC9  1303               	bcf	3,6	;RP1=0, select bank0
  3036  0ECA  1508               	bsf	8,2	;volatile
  3037  0ECB                     l2029:
  3038                           
  3039                           ;main_brazo.c: 412:     _delay((unsigned long)((250)*(4000000/4000.0)));
  3040  0ECB  30D5               	movlw	213
  3041  0ECC  1283               	bcf	3,5	;RP0=0, select bank0
  3042  0ECD  1303               	bcf	3,6	;RP1=0, select bank0
  3043  0ECE  00A5               	movwf	??_servo_3_3
  3044  0ECF                     u2667:
  3045  0ECF  2ED0               	nop2
  3046  0ED0  2ED1               	nop2
  3047  0ED1  0BA5               	decfsz	??_servo_3_3,f
  3048  0ED2  2ECF               	goto	u2667
  3049  0ED3  2ED4               	nop2
  3050  0ED4  2ED5               	nop2
  3051  0ED5  2ED6               	nop2
  3052  0ED6                     l2031:
  3053                           
  3054                           ;main_brazo.c: 413:     printf("(1) Mover servos \r");
  3055  0ED6  1283               	bcf	3,5	;RP0=0, select bank0
  3056  0ED7  1303               	bcf	3,6	;RP1=0, select bank0
  3057  0ED8  1108               	bcf	8,2	;volatile
  3058                           
  3059                           ;main_brazo.c: 414:     _delay((unsigned long)((250)*(4000000/4000.0)));
  3060  0ED9  3019               	movlw	25
  3061  0EDA  1283               	bcf	3,5	;RP0=0, select bank0
  3062  0EDB  1303               	bcf	3,6	;RP1=0, select bank0
  3063  0EDC  00A6               	movwf	??_servo_3_3+1
  3064  0EDD  3004               	movlw	4
  3065  0EDE  00A5               	movwf	??_servo_3_3
  3066  0EDF                     u2677:
  3067  0EDF  0BA5               	decfsz	??_servo_3_3,f
  3068  0EE0  2EDF               	goto	u2677
  3069  0EE1  0BA6               	decfsz	??_servo_3_3+1,f
  3070  0EE2  2EDF               	goto	u2677
  3071  0EE3  0000               	nop
  3072  0EE4                     l303:
  3073  0EE4  0008               	return
  3074  0EE5                     __end_of_servo_3_3:
  3075                           
  3076                           	psect	text6
  3077  0DAF                     __ptext6:	
  3078 ;; *************** function _servo_3_2 *****************
  3079 ;; Defined at:
  3080 ;;		line 403 in file "main_brazo.c"
  3081 ;; Parameters:    Size  Location     Type
  3082 ;;		None
  3083 ;; Auto vars:     Size  Location     Type
  3084 ;;		None
  3085 ;; Return value:  Size  Location     Type
  3086 ;;                  1    wreg      void 
  3087 ;; Registers used:
  3088 ;;		wreg
  3089 ;; Tracked objects:
  3090 ;;		On entry : 0/0
  3091 ;;		On exit  : 0/0
  3092 ;;		Unchanged: 0/0
  3093 ;; Data sizes:     COMMON   BANK0   BANK1   BANK3   BANK2
  3094 ;;      Params:         0       0       0       0       0
  3095 ;;      Locals:         0       0       0       0       0
  3096 ;;      Temps:          0       2       0       0       0
  3097 ;;      Totals:         0       2       0       0       0
  3098 ;;Total ram usage:        2 bytes
  3099 ;; Hardware stack levels used:    1
  3100 ;; Hardware stack levels required when called:    3
  3101 ;; This function calls:
  3102 ;;		Nothing
  3103 ;; This function is called by:
  3104 ;;		_mensaje
  3105 ;; This function uses a non-reentrant model
  3106 ;;
  3107                           
  3108                           
  3109                           ;psect for function _servo_3_2
  3110  0DAF                     _servo_3_2:
  3111  0DAF                     l2021:	
  3112                           ;incstack = 0
  3113                           ; Regs used in _servo_3_2: [wreg]
  3114                           
  3115                           
  3116                           ;main_brazo.c: 404:     while(TXIF == 0);
  3117  0DAF  1283               	bcf	3,5	;RP0=0, select bank0
  3118  0DB0  1303               	bcf	3,6	;RP1=0, select bank0
  3119  0DB1  1508               	bsf	8,2	;volatile
  3120  0DB2                     l2023:
  3121                           
  3122                           ;main_brazo.c: 405:     TXREG = dato;
  3123  0DB2  30F9               	movlw	249
  3124  0DB3  1283               	bcf	3,5	;RP0=0, select bank0
  3125  0DB4  1303               	bcf	3,6	;RP1=0, select bank0
  3126  0DB5  00A5               	movwf	??_servo_3_2
  3127  0DB6                     u2687:
  3128  0DB6  2DB7               	nop2
  3129  0DB7  0BA5               	decfsz	??_servo_3_2,f
  3130  0DB8  2DB6               	goto	u2687
  3131  0DB9  2DBA               	nop2
  3132  0DBA                     l2025:
  3133                           
  3134                           ;main_brazo.c: 406:     return;
  3135  0DBA  1283               	bcf	3,5	;RP0=0, select bank0
  3136  0DBB  1303               	bcf	3,6	;RP1=0, select bank0
  3137  0DBC  1108               	bcf	8,2	;volatile
  3138                           
  3139                           ;main_brazo.c: 407: }
  3140  0DBD  3019               	movlw	25
  3141  0DBE  1283               	bcf	3,5	;RP0=0, select bank0
  3142  0DBF  1303               	bcf	3,6	;RP1=0, select bank0
  3143  0DC0  00A6               	movwf	??_servo_3_2+1
  3144  0DC1  3057               	movlw	87
  3145  0DC2  00A5               	movwf	??_servo_3_2
  3146  0DC3                     u2697:
  3147  0DC3  0BA5               	decfsz	??_servo_3_2,f
  3148  0DC4  2DC3               	goto	u2697
  3149  0DC5  0BA6               	decfsz	??_servo_3_2+1,f
  3150  0DC6  2DC3               	goto	u2697
  3151  0DC7  2DC8               	nop2
  3152  0DC8                     l300:
  3153  0DC8  0008               	return
  3154  0DC9                     __end_of_servo_3_2:
  3155                           
  3156                           	psect	text7
  3157  0D62                     __ptext7:	
  3158 ;; *************** function _servo_3_1 *****************
  3159 ;; Defined at:
  3160 ;;		line 396 in file "main_brazo.c"
  3161 ;; Parameters:    Size  Location     Type
  3162 ;;		None
  3163 ;; Auto vars:     Size  Location     Type
  3164 ;;		None
  3165 ;; Return value:  Size  Location     Type
  3166 ;;                  1    wreg      void 
  3167 ;; Registers used:
  3168 ;;		wreg
  3169 ;; Tracked objects:
  3170 ;;		On entry : 0/0
  3171 ;;		On exit  : 0/0
  3172 ;;		Unchanged: 0/0
  3173 ;; Data sizes:     COMMON   BANK0   BANK1   BANK3   BANK2
  3174 ;;      Params:         0       0       0       0       0
  3175 ;;      Locals:         0       0       0       0       0
  3176 ;;      Temps:          0       2       0       0       0
  3177 ;;      Totals:         0       2       0       0       0
  3178 ;;Total ram usage:        2 bytes
  3179 ;; Hardware stack levels used:    1
  3180 ;; Hardware stack levels required when called:    3
  3181 ;; This function calls:
  3182 ;;		Nothing
  3183 ;; This function is called by:
  3184 ;;		_mensaje
  3185 ;; This function uses a non-reentrant model
  3186 ;;
  3187                           
  3188                           
  3189                           ;psect for function _servo_3_1
  3190  0D62                     _servo_3_1:
  3191  0D62                     l2015:	
  3192                           ;incstack = 0
  3193                           ; Regs used in _servo_3_1: [wreg]
  3194                           
  3195                           
  3196                           ;main_brazo.c: 397: void motor_2(void){
  3197  0D62  1283               	bcf	3,5	;RP0=0, select bank0
  3198  0D63  1303               	bcf	3,6	;RP1=0, select bank0
  3199  0D64  1508               	bsf	8,2	;volatile
  3200  0D65                     l2017:
  3201                           
  3202                           ;main_brazo.c: 398:     CCPR1L = 0;
  3203  0D65  30E8               	movlw	232
  3204  0D66  1283               	bcf	3,5	;RP0=0, select bank0
  3205  0D67  1303               	bcf	3,6	;RP1=0, select bank0
  3206  0D68  00A5               	movwf	??_servo_3_1
  3207  0D69                     u2707:
  3208  0D69  0BA5               	decfsz	??_servo_3_1,f
  3209  0D6A  2D69               	goto	u2707
  3210  0D6B  0000               	nop
  3211  0D6C                     l2019:
  3212                           
  3213                           ;main_brazo.c: 399:     CCPR2L = ADRESH/4;
  3214  0D6C  1283               	bcf	3,5	;RP0=0, select bank0
  3215  0D6D  1303               	bcf	3,6	;RP1=0, select bank0
  3216  0D6E  1108               	bcf	8,2	;volatile
  3217                           
  3218                           ;main_brazo.c: 400:     RE1 = 1;
  3219  0D6F  301A               	movlw	26
  3220  0D70  1283               	bcf	3,5	;RP0=0, select bank0
  3221  0D71  1303               	bcf	3,6	;RP1=0, select bank0
  3222  0D72  00A6               	movwf	??_servo_3_1+1
  3223  0D73  300E               	movlw	14
  3224  0D74  00A5               	movwf	??_servo_3_1
  3225  0D75                     u2717:
  3226  0D75  0BA5               	decfsz	??_servo_3_1,f
  3227  0D76  2D75               	goto	u2717
  3228  0D77  0BA6               	decfsz	??_servo_3_1+1,f
  3229  0D78  2D75               	goto	u2717
  3230  0D79  0000               	nop
  3231  0D7A                     l297:
  3232  0D7A  0008               	return
  3233  0D7B                     __end_of_servo_3_1:
  3234                           
  3235                           	psect	text8
  3236  0E1D                     __ptext8:	
  3237 ;; *************** function _servo_2_5 *****************
  3238 ;; Defined at:
  3239 ;;		line 389 in file "main_brazo.c"
  3240 ;; Parameters:    Size  Location     Type
  3241 ;;		None
  3242 ;; Auto vars:     Size  Location     Type
  3243 ;;		None
  3244 ;; Return value:  Size  Location     Type
  3245 ;;                  1    wreg      void 
  3246 ;; Registers used:
  3247 ;;		wreg
  3248 ;; Tracked objects:
  3249 ;;		On entry : 0/0
  3250 ;;		On exit  : 0/0
  3251 ;;		Unchanged: 0/0
  3252 ;; Data sizes:     COMMON   BANK0   BANK1   BANK3   BANK2
  3253 ;;      Params:         0       0       0       0       0
  3254 ;;      Locals:         0       0       0       0       0
  3255 ;;      Temps:          0       2       0       0       0
  3256 ;;      Totals:         0       2       0       0       0
  3257 ;;Total ram usage:        2 bytes
  3258 ;; Hardware stack levels used:    1
  3259 ;; Hardware stack levels required when called:    3
  3260 ;; This function calls:
  3261 ;;		Nothing
  3262 ;; This function is called by:
  3263 ;;		_mensaje
  3264 ;; This function uses a non-reentrant model
  3265 ;;
  3266                           
  3267                           
  3268                           ;psect for function _servo_2_5
  3269  0E1D                     _servo_2_5:
  3270  0E1D                     l2009:	
  3271                           ;incstack = 0
  3272                           ; Regs used in _servo_2_5: [wreg]
  3273                           
  3274                           
  3275                           ;main_brazo.c: 390: 
  3276  0E1D  1283               	bcf	3,5	;RP0=0, select bank0
  3277  0E1E  1303               	bcf	3,6	;RP1=0, select bank0
  3278  0E1F  1488               	bsf	8,1	;volatile
  3279  0E20                     l2011:
  3280                           
  3281                           ;main_brazo.c: 391: void motor_1(void){
  3282  0E20  3003               	movlw	3
  3283  0E21  1283               	bcf	3,5	;RP0=0, select bank0
  3284  0E22  1303               	bcf	3,6	;RP1=0, select bank0
  3285  0E23  00A6               	movwf	??_servo_2_5+1
  3286  0E24  3097               	movlw	151
  3287  0E25  00A5               	movwf	??_servo_2_5
  3288  0E26                     u2727:
  3289  0E26  0BA5               	decfsz	??_servo_2_5,f
  3290  0E27  2E26               	goto	u2727
  3291  0E28  0BA6               	decfsz	??_servo_2_5+1,f
  3292  0E29  2E26               	goto	u2727
  3293  0E2A                     l2013:
  3294                           
  3295                           ;main_brazo.c: 392:     CCPR1L = ADRESH/4;
  3296  0E2A  1283               	bcf	3,5	;RP0=0, select bank0
  3297  0E2B  1303               	bcf	3,6	;RP1=0, select bank0
  3298  0E2C  1088               	bcf	8,1	;volatile
  3299                           
  3300                           ;main_brazo.c: 393:     CCPR2L = 0;
  3301  0E2D  3018               	movlw	24
  3302  0E2E  1283               	bcf	3,5	;RP0=0, select bank0
  3303  0E2F  1303               	bcf	3,6	;RP1=0, select bank0
  3304  0E30  00A6               	movwf	??_servo_2_5+1
  3305  0E31  305E               	movlw	94
  3306  0E32  00A5               	movwf	??_servo_2_5
  3307  0E33                     u2737:
  3308  0E33  0BA5               	decfsz	??_servo_2_5,f
  3309  0E34  2E33               	goto	u2737
  3310  0E35  0BA6               	decfsz	??_servo_2_5+1,f
  3311  0E36  2E33               	goto	u2737
  3312  0E37  0000               	nop
  3313  0E38                     l294:
  3314  0E38  0008               	return
  3315  0E39                     __end_of_servo_2_5:
  3316                           
  3317                           	psect	text9
  3318  0E01                     __ptext9:	
  3319 ;; *************** function _servo_2_4 *****************
  3320 ;; Defined at:
  3321 ;;		line 382 in file "main_brazo.c"
  3322 ;; Parameters:    Size  Location     Type
  3323 ;;		None
  3324 ;; Auto vars:     Size  Location     Type
  3325 ;;		None
  3326 ;; Return value:  Size  Location     Type
  3327 ;;                  1    wreg      void 
  3328 ;; Registers used:
  3329 ;;		wreg
  3330 ;; Tracked objects:
  3331 ;;		On entry : 0/0
  3332 ;;		On exit  : 0/0
  3333 ;;		Unchanged: 0/0
  3334 ;; Data sizes:     COMMON   BANK0   BANK1   BANK3   BANK2
  3335 ;;      Params:         0       0       0       0       0
  3336 ;;      Locals:         0       0       0       0       0
  3337 ;;      Temps:          0       2       0       0       0
  3338 ;;      Totals:         0       2       0       0       0
  3339 ;;Total ram usage:        2 bytes
  3340 ;; Hardware stack levels used:    1
  3341 ;; Hardware stack levels required when called:    3
  3342 ;; This function calls:
  3343 ;;		Nothing
  3344 ;; This function is called by:
  3345 ;;		_mensaje
  3346 ;; This function uses a non-reentrant model
  3347 ;;
  3348                           
  3349                           
  3350                           ;psect for function _servo_2_4
  3351  0E01                     _servo_2_4:
  3352  0E01                     l2003:	
  3353                           ;incstack = 0
  3354                           ; Regs used in _servo_2_4: [wreg]
  3355                           
  3356                           
  3357                           ;main_brazo.c: 383: }
  3358  0E01  1283               	bcf	3,5	;RP0=0, select bank0
  3359  0E02  1303               	bcf	3,6	;RP1=0, select bank0
  3360  0E03  1488               	bsf	8,1	;volatile
  3361  0E04                     l2005:
  3362                           
  3363                           ;main_brazo.c: 384: 
  3364  0E04  30F9               	movlw	249
  3365  0E05  1283               	bcf	3,5	;RP0=0, select bank0
  3366  0E06  1303               	bcf	3,6	;RP1=0, select bank0
  3367  0E07  00A5               	movwf	??_servo_2_4
  3368  0E08                     u2747:
  3369  0E08  2E09               	nop2
  3370  0E09  2E0A               	nop2
  3371  0E0A  0BA5               	decfsz	??_servo_2_4,f
  3372  0E0B  2E08               	goto	u2747
  3373  0E0C  2E0D               	nop2
  3374  0E0D  2E0E               	nop2
  3375  0E0E                     l2007:
  3376                           
  3377                           ;main_brazo.c: 385: void motor_detenido(void){
  3378  0E0E  1283               	bcf	3,5	;RP0=0, select bank0
  3379  0E0F  1303               	bcf	3,6	;RP1=0, select bank0
  3380  0E10  1088               	bcf	8,1	;volatile
  3381                           
  3382                           ;main_brazo.c: 386:     CCPR1L = 0;
  3383  0E11  3018               	movlw	24
  3384  0E12  1283               	bcf	3,5	;RP0=0, select bank0
  3385  0E13  1303               	bcf	3,6	;RP1=0, select bank0
  3386  0E14  00A6               	movwf	??_servo_2_4+1
  3387  0E15  30B1               	movlw	177
  3388  0E16  00A5               	movwf	??_servo_2_4
  3389  0E17                     u2757:
  3390  0E17  0BA5               	decfsz	??_servo_2_4,f
  3391  0E18  2E17               	goto	u2757
  3392  0E19  0BA6               	decfsz	??_servo_2_4+1,f
  3393  0E1A  2E17               	goto	u2757
  3394  0E1B  2E1C               	nop2
  3395  0E1C                     l291:
  3396  0E1C  0008               	return
  3397  0E1D                     __end_of_servo_2_4:
  3398                           
  3399                           	psect	text10
  3400  0EAB                     __ptext10:	
  3401 ;; *************** function _servo_2_3 *****************
  3402 ;; Defined at:
  3403 ;;		line 375 in file "main_brazo.c"
  3404 ;; Parameters:    Size  Location     Type
  3405 ;;		None
  3406 ;; Auto vars:     Size  Location     Type
  3407 ;;		None
  3408 ;; Return value:  Size  Location     Type
  3409 ;;                  1    wreg      void 
  3410 ;; Registers used:
  3411 ;;		wreg
  3412 ;; Tracked objects:
  3413 ;;		On entry : 0/0
  3414 ;;		On exit  : 0/0
  3415 ;;		Unchanged: 0/0
  3416 ;; Data sizes:     COMMON   BANK0   BANK1   BANK3   BANK2
  3417 ;;      Params:         0       0       0       0       0
  3418 ;;      Locals:         0       0       0       0       0
  3419 ;;      Temps:          0       2       0       0       0
  3420 ;;      Totals:         0       2       0       0       0
  3421 ;;Total ram usage:        2 bytes
  3422 ;; Hardware stack levels used:    1
  3423 ;; Hardware stack levels required when called:    3
  3424 ;; This function calls:
  3425 ;;		Nothing
  3426 ;; This function is called by:
  3427 ;;		_mensaje
  3428 ;; This function uses a non-reentrant model
  3429 ;;
  3430                           
  3431                           
  3432                           ;psect for function _servo_2_3
  3433  0EAB                     _servo_2_3:
  3434  0EAB                     l1997:	
  3435                           ;incstack = 0
  3436                           ; Regs used in _servo_2_3: [wreg]
  3437                           
  3438                           
  3439                           ;main_brazo.c: 376: }
  3440  0EAB  1283               	bcf	3,5	;RP0=0, select bank0
  3441  0EAC  1303               	bcf	3,6	;RP1=0, select bank0
  3442  0EAD  1488               	bsf	8,1	;volatile
  3443  0EAE                     l1999:
  3444                           
  3445                           ;main_brazo.c: 377: 
  3446  0EAE  30D5               	movlw	213
  3447  0EAF  1283               	bcf	3,5	;RP0=0, select bank0
  3448  0EB0  1303               	bcf	3,6	;RP1=0, select bank0
  3449  0EB1  00A5               	movwf	??_servo_2_3
  3450  0EB2                     u2767:
  3451  0EB2  2EB3               	nop2
  3452  0EB3  2EB4               	nop2
  3453  0EB4  0BA5               	decfsz	??_servo_2_3,f
  3454  0EB5  2EB2               	goto	u2767
  3455  0EB6  2EB7               	nop2
  3456  0EB7  2EB8               	nop2
  3457  0EB8  2EB9               	nop2
  3458  0EB9                     l2001:
  3459                           
  3460                           ;main_brazo.c: 378: void servo_3_5(void){
  3461  0EB9  1283               	bcf	3,5	;RP0=0, select bank0
  3462  0EBA  1303               	bcf	3,6	;RP1=0, select bank0
  3463  0EBB  1088               	bcf	8,1	;volatile
  3464                           
  3465                           ;main_brazo.c: 379:     RD2 = 1;
  3466  0EBC  3019               	movlw	25
  3467  0EBD  1283               	bcf	3,5	;RP0=0, select bank0
  3468  0EBE  1303               	bcf	3,6	;RP1=0, select bank0
  3469  0EBF  00A6               	movwf	??_servo_2_3+1
  3470  0EC0  3004               	movlw	4
  3471  0EC1  00A5               	movwf	??_servo_2_3
  3472  0EC2                     u2777:
  3473  0EC2  0BA5               	decfsz	??_servo_2_3,f
  3474  0EC3  2EC2               	goto	u2777
  3475  0EC4  0BA6               	decfsz	??_servo_2_3+1,f
  3476  0EC5  2EC2               	goto	u2777
  3477  0EC6  0000               	nop
  3478  0EC7                     l288:
  3479  0EC7  0008               	return
  3480  0EC8                     __end_of_servo_2_3:
  3481                           
  3482                           	psect	text11
  3483  0D95                     __ptext11:	
  3484 ;; *************** function _servo_2_2 *****************
  3485 ;; Defined at:
  3486 ;;		line 368 in file "main_brazo.c"
  3487 ;; Parameters:    Size  Location     Type
  3488 ;;		None
  3489 ;; Auto vars:     Size  Location     Type
  3490 ;;		None
  3491 ;; Return value:  Size  Location     Type
  3492 ;;                  1    wreg      void 
  3493 ;; Registers used:
  3494 ;;		wreg
  3495 ;; Tracked objects:
  3496 ;;		On entry : 0/0
  3497 ;;		On exit  : 0/0
  3498 ;;		Unchanged: 0/0
  3499 ;; Data sizes:     COMMON   BANK0   BANK1   BANK3   BANK2
  3500 ;;      Params:         0       0       0       0       0
  3501 ;;      Locals:         0       0       0       0       0
  3502 ;;      Temps:          0       2       0       0       0
  3503 ;;      Totals:         0       2       0       0       0
  3504 ;;Total ram usage:        2 bytes
  3505 ;; Hardware stack levels used:    1
  3506 ;; Hardware stack levels required when called:    3
  3507 ;; This function calls:
  3508 ;;		Nothing
  3509 ;; This function is called by:
  3510 ;;		_mensaje
  3511 ;; This function uses a non-reentrant model
  3512 ;;
  3513                           
  3514                           
  3515                           ;psect for function _servo_2_2
  3516  0D95                     _servo_2_2:
  3517  0D95                     l1991:	
  3518                           ;incstack = 0
  3519                           ; Regs used in _servo_2_2: [wreg]
  3520                           
  3521                           
  3522                           ;main_brazo.c: 369: }
  3523  0D95  1283               	bcf	3,5	;RP0=0, select bank0
  3524  0D96  1303               	bcf	3,6	;RP1=0, select bank0
  3525  0D97  1488               	bsf	8,1	;volatile
  3526  0D98                     l1993:
  3527                           
  3528                           ;main_brazo.c: 370: 
  3529  0D98  30F9               	movlw	249
  3530  0D99  1283               	bcf	3,5	;RP0=0, select bank0
  3531  0D9A  1303               	bcf	3,6	;RP1=0, select bank0
  3532  0D9B  00A5               	movwf	??_servo_2_2
  3533  0D9C                     u2787:
  3534  0D9C  2D9D               	nop2
  3535  0D9D  0BA5               	decfsz	??_servo_2_2,f
  3536  0D9E  2D9C               	goto	u2787
  3537  0D9F  2DA0               	nop2
  3538  0DA0                     l1995:
  3539                           
  3540                           ;main_brazo.c: 371: void servo_3_4(void){
  3541  0DA0  1283               	bcf	3,5	;RP0=0, select bank0
  3542  0DA1  1303               	bcf	3,6	;RP1=0, select bank0
  3543  0DA2  1088               	bcf	8,1	;volatile
  3544                           
  3545                           ;main_brazo.c: 372:     RD2 = 1;
  3546  0DA3  3019               	movlw	25
  3547  0DA4  1283               	bcf	3,5	;RP0=0, select bank0
  3548  0DA5  1303               	bcf	3,6	;RP1=0, select bank0
  3549  0DA6  00A6               	movwf	??_servo_2_2+1
  3550  0DA7  3057               	movlw	87
  3551  0DA8  00A5               	movwf	??_servo_2_2
  3552  0DA9                     u2797:
  3553  0DA9  0BA5               	decfsz	??_servo_2_2,f
  3554  0DAA  2DA9               	goto	u2797
  3555  0DAB  0BA6               	decfsz	??_servo_2_2+1,f
  3556  0DAC  2DA9               	goto	u2797
  3557  0DAD  2DAE               	nop2
  3558  0DAE                     l285:
  3559  0DAE  0008               	return
  3560  0DAF                     __end_of_servo_2_2:
  3561                           
  3562                           	psect	text12
  3563  0D49                     __ptext12:	
  3564 ;; *************** function _servo_2_1 *****************
  3565 ;; Defined at:
  3566 ;;		line 361 in file "main_brazo.c"
  3567 ;; Parameters:    Size  Location     Type
  3568 ;;		None
  3569 ;; Auto vars:     Size  Location     Type
  3570 ;;		None
  3571 ;; Return value:  Size  Location     Type
  3572 ;;                  1    wreg      void 
  3573 ;; Registers used:
  3574 ;;		wreg
  3575 ;; Tracked objects:
  3576 ;;		On entry : 0/0
  3577 ;;		On exit  : 0/0
  3578 ;;		Unchanged: 0/0
  3579 ;; Data sizes:     COMMON   BANK0   BANK1   BANK3   BANK2
  3580 ;;      Params:         0       0       0       0       0
  3581 ;;      Locals:         0       0       0       0       0
  3582 ;;      Temps:          0       2       0       0       0
  3583 ;;      Totals:         0       2       0       0       0
  3584 ;;Total ram usage:        2 bytes
  3585 ;; Hardware stack levels used:    1
  3586 ;; Hardware stack levels required when called:    3
  3587 ;; This function calls:
  3588 ;;		Nothing
  3589 ;; This function is called by:
  3590 ;;		_mensaje
  3591 ;; This function uses a non-reentrant model
  3592 ;;
  3593                           
  3594                           
  3595                           ;psect for function _servo_2_1
  3596  0D49                     _servo_2_1:
  3597  0D49                     l1985:	
  3598                           ;incstack = 0
  3599                           ; Regs used in _servo_2_1: [wreg]
  3600                           
  3601                           
  3602                           ;main_brazo.c: 362: }
  3603  0D49  1283               	bcf	3,5	;RP0=0, select bank0
  3604  0D4A  1303               	bcf	3,6	;RP1=0, select bank0
  3605  0D4B  1488               	bsf	8,1	;volatile
  3606  0D4C                     l1987:
  3607                           
  3608                           ;main_brazo.c: 363: 
  3609  0D4C  30E8               	movlw	232
  3610  0D4D  1283               	bcf	3,5	;RP0=0, select bank0
  3611  0D4E  1303               	bcf	3,6	;RP1=0, select bank0
  3612  0D4F  00A5               	movwf	??_servo_2_1
  3613  0D50                     u2807:
  3614  0D50  0BA5               	decfsz	??_servo_2_1,f
  3615  0D51  2D50               	goto	u2807
  3616  0D52  0000               	nop
  3617  0D53                     l1989:
  3618                           
  3619                           ;main_brazo.c: 364: void servo_3_3(void){
  3620  0D53  1283               	bcf	3,5	;RP0=0, select bank0
  3621  0D54  1303               	bcf	3,6	;RP1=0, select bank0
  3622  0D55  1088               	bcf	8,1	;volatile
  3623                           
  3624                           ;main_brazo.c: 365:     RD2 = 1;
  3625  0D56  301A               	movlw	26
  3626  0D57  1283               	bcf	3,5	;RP0=0, select bank0
  3627  0D58  1303               	bcf	3,6	;RP1=0, select bank0
  3628  0D59  00A6               	movwf	??_servo_2_1+1
  3629  0D5A  300E               	movlw	14
  3630  0D5B  00A5               	movwf	??_servo_2_1
  3631  0D5C                     u2817:
  3632  0D5C  0BA5               	decfsz	??_servo_2_1,f
  3633  0D5D  2D5C               	goto	u2817
  3634  0D5E  0BA6               	decfsz	??_servo_2_1+1,f
  3635  0D5F  2D5C               	goto	u2817
  3636  0D60  0000               	nop
  3637  0D61                     l282:
  3638  0D61  0008               	return
  3639  0D62                     __end_of_servo_2_1:
  3640                           
  3641                           	psect	text13
  3642  0DE5                     __ptext13:	
  3643 ;; *************** function _servo_1_5 *****************
  3644 ;; Defined at:
  3645 ;;		line 354 in file "main_brazo.c"
  3646 ;; Parameters:    Size  Location     Type
  3647 ;;		None
  3648 ;; Auto vars:     Size  Location     Type
  3649 ;;		None
  3650 ;; Return value:  Size  Location     Type
  3651 ;;                  1    wreg      void 
  3652 ;; Registers used:
  3653 ;;		wreg
  3654 ;; Tracked objects:
  3655 ;;		On entry : 0/0
  3656 ;;		On exit  : 0/0
  3657 ;;		Unchanged: 0/0
  3658 ;; Data sizes:     COMMON   BANK0   BANK1   BANK3   BANK2
  3659 ;;      Params:         0       0       0       0       0
  3660 ;;      Locals:         0       0       0       0       0
  3661 ;;      Temps:          0       2       0       0       0
  3662 ;;      Totals:         0       2       0       0       0
  3663 ;;Total ram usage:        2 bytes
  3664 ;; Hardware stack levels used:    1
  3665 ;; Hardware stack levels required when called:    3
  3666 ;; This function calls:
  3667 ;;		Nothing
  3668 ;; This function is called by:
  3669 ;;		_mensaje
  3670 ;; This function uses a non-reentrant model
  3671 ;;
  3672                           
  3673                           
  3674                           ;psect for function _servo_1_5
  3675  0DE5                     _servo_1_5:
  3676  0DE5                     l1979:	
  3677                           ;incstack = 0
  3678                           ; Regs used in _servo_1_5: [wreg]
  3679                           
  3680                           
  3681                           ;main_brazo.c: 355: }
  3682  0DE5  1283               	bcf	3,5	;RP0=0, select bank0
  3683  0DE6  1303               	bcf	3,6	;RP1=0, select bank0
  3684  0DE7  1408               	bsf	8,0	;volatile
  3685  0DE8                     l1981:
  3686                           
  3687                           ;main_brazo.c: 356: 
  3688  0DE8  3003               	movlw	3
  3689  0DE9  1283               	bcf	3,5	;RP0=0, select bank0
  3690  0DEA  1303               	bcf	3,6	;RP1=0, select bank0
  3691  0DEB  00A6               	movwf	??_servo_1_5+1
  3692  0DEC  3097               	movlw	151
  3693  0DED  00A5               	movwf	??_servo_1_5
  3694  0DEE                     u2827:
  3695  0DEE  0BA5               	decfsz	??_servo_1_5,f
  3696  0DEF  2DEE               	goto	u2827
  3697  0DF0  0BA6               	decfsz	??_servo_1_5+1,f
  3698  0DF1  2DEE               	goto	u2827
  3699  0DF2                     l1983:
  3700                           
  3701                           ;main_brazo.c: 357: void servo_3_2(void){
  3702  0DF2  1283               	bcf	3,5	;RP0=0, select bank0
  3703  0DF3  1303               	bcf	3,6	;RP1=0, select bank0
  3704  0DF4  1008               	bcf	8,0	;volatile
  3705                           
  3706                           ;main_brazo.c: 358:     RD2 = 1;
  3707  0DF5  3018               	movlw	24
  3708  0DF6  1283               	bcf	3,5	;RP0=0, select bank0
  3709  0DF7  1303               	bcf	3,6	;RP1=0, select bank0
  3710  0DF8  00A6               	movwf	??_servo_1_5+1
  3711  0DF9  305E               	movlw	94
  3712  0DFA  00A5               	movwf	??_servo_1_5
  3713  0DFB                     u2837:
  3714  0DFB  0BA5               	decfsz	??_servo_1_5,f
  3715  0DFC  2DFB               	goto	u2837
  3716  0DFD  0BA6               	decfsz	??_servo_1_5+1,f
  3717  0DFE  2DFB               	goto	u2837
  3718  0DFF  0000               	nop
  3719  0E00                     l279:
  3720  0E00  0008               	return
  3721  0E01                     __end_of_servo_1_5:
  3722                           
  3723                           	psect	text14
  3724  0DC9                     __ptext14:	
  3725 ;; *************** function _servo_1_4 *****************
  3726 ;; Defined at:
  3727 ;;		line 347 in file "main_brazo.c"
  3728 ;; Parameters:    Size  Location     Type
  3729 ;;		None
  3730 ;; Auto vars:     Size  Location     Type
  3731 ;;		None
  3732 ;; Return value:  Size  Location     Type
  3733 ;;                  1    wreg      void 
  3734 ;; Registers used:
  3735 ;;		wreg
  3736 ;; Tracked objects:
  3737 ;;		On entry : 0/0
  3738 ;;		On exit  : 0/0
  3739 ;;		Unchanged: 0/0
  3740 ;; Data sizes:     COMMON   BANK0   BANK1   BANK3   BANK2
  3741 ;;      Params:         0       0       0       0       0
  3742 ;;      Locals:         0       0       0       0       0
  3743 ;;      Temps:          0       2       0       0       0
  3744 ;;      Totals:         0       2       0       0       0
  3745 ;;Total ram usage:        2 bytes
  3746 ;; Hardware stack levels used:    1
  3747 ;; Hardware stack levels required when called:    3
  3748 ;; This function calls:
  3749 ;;		Nothing
  3750 ;; This function is called by:
  3751 ;;		_mensaje
  3752 ;; This function uses a non-reentrant model
  3753 ;;
  3754                           
  3755                           
  3756                           ;psect for function _servo_1_4
  3757  0DC9                     _servo_1_4:
  3758  0DC9                     l1973:	
  3759                           ;incstack = 0
  3760                           ; Regs used in _servo_1_4: [wreg]
  3761                           
  3762                           
  3763                           ;main_brazo.c: 348: }
  3764  0DC9  1283               	bcf	3,5	;RP0=0, select bank0
  3765  0DCA  1303               	bcf	3,6	;RP1=0, select bank0
  3766  0DCB  1408               	bsf	8,0	;volatile
  3767  0DCC                     l1975:
  3768                           
  3769                           ;main_brazo.c: 349: 
  3770  0DCC  30F9               	movlw	249
  3771  0DCD  1283               	bcf	3,5	;RP0=0, select bank0
  3772  0DCE  1303               	bcf	3,6	;RP1=0, select bank0
  3773  0DCF  00A5               	movwf	??_servo_1_4
  3774  0DD0                     u2847:
  3775  0DD0  2DD1               	nop2
  3776  0DD1  2DD2               	nop2
  3777  0DD2  0BA5               	decfsz	??_servo_1_4,f
  3778  0DD3  2DD0               	goto	u2847
  3779  0DD4  2DD5               	nop2
  3780  0DD5  2DD6               	nop2
  3781  0DD6                     l1977:
  3782                           
  3783                           ;main_brazo.c: 350: void servo_3_1(void){
  3784  0DD6  1283               	bcf	3,5	;RP0=0, select bank0
  3785  0DD7  1303               	bcf	3,6	;RP1=0, select bank0
  3786  0DD8  1008               	bcf	8,0	;volatile
  3787                           
  3788                           ;main_brazo.c: 351:     RD2 = 1;
  3789  0DD9  3018               	movlw	24
  3790  0DDA  1283               	bcf	3,5	;RP0=0, select bank0
  3791  0DDB  1303               	bcf	3,6	;RP1=0, select bank0
  3792  0DDC  00A6               	movwf	??_servo_1_4+1
  3793  0DDD  30B1               	movlw	177
  3794  0DDE  00A5               	movwf	??_servo_1_4
  3795  0DDF                     u2857:
  3796  0DDF  0BA5               	decfsz	??_servo_1_4,f
  3797  0DE0  2DDF               	goto	u2857
  3798  0DE1  0BA6               	decfsz	??_servo_1_4+1,f
  3799  0DE2  2DDF               	goto	u2857
  3800  0DE3  2DE4               	nop2
  3801  0DE4                     l276:
  3802  0DE4  0008               	return
  3803  0DE5                     __end_of_servo_1_4:
  3804                           
  3805                           	psect	text15
  3806  0E8E                     __ptext15:	
  3807 ;; *************** function _servo_1_3 *****************
  3808 ;; Defined at:
  3809 ;;		line 340 in file "main_brazo.c"
  3810 ;; Parameters:    Size  Location     Type
  3811 ;;		None
  3812 ;; Auto vars:     Size  Location     Type
  3813 ;;		None
  3814 ;; Return value:  Size  Location     Type
  3815 ;;                  1    wreg      void 
  3816 ;; Registers used:
  3817 ;;		wreg
  3818 ;; Tracked objects:
  3819 ;;		On entry : 0/0
  3820 ;;		On exit  : 0/0
  3821 ;;		Unchanged: 0/0
  3822 ;; Data sizes:     COMMON   BANK0   BANK1   BANK3   BANK2
  3823 ;;      Params:         0       0       0       0       0
  3824 ;;      Locals:         0       0       0       0       0
  3825 ;;      Temps:          0       2       0       0       0
  3826 ;;      Totals:         0       2       0       0       0
  3827 ;;Total ram usage:        2 bytes
  3828 ;; Hardware stack levels used:    1
  3829 ;; Hardware stack levels required when called:    3
  3830 ;; This function calls:
  3831 ;;		Nothing
  3832 ;; This function is called by:
  3833 ;;		_mensaje
  3834 ;; This function uses a non-reentrant model
  3835 ;;
  3836                           
  3837                           
  3838                           ;psect for function _servo_1_3
  3839  0E8E                     _servo_1_3:
  3840  0E8E                     l1967:	
  3841                           ;incstack = 0
  3842                           ; Regs used in _servo_1_3: [wreg]
  3843                           
  3844                           
  3845                           ;main_brazo.c: 341: }
  3846  0E8E  1283               	bcf	3,5	;RP0=0, select bank0
  3847  0E8F  1303               	bcf	3,6	;RP1=0, select bank0
  3848  0E90  1408               	bsf	8,0	;volatile
  3849  0E91                     l1969:
  3850                           
  3851                           ;main_brazo.c: 342: 
  3852  0E91  30D5               	movlw	213
  3853  0E92  1283               	bcf	3,5	;RP0=0, select bank0
  3854  0E93  1303               	bcf	3,6	;RP1=0, select bank0
  3855  0E94  00A5               	movwf	??_servo_1_3
  3856  0E95                     u2867:
  3857  0E95  2E96               	nop2
  3858  0E96  2E97               	nop2
  3859  0E97  0BA5               	decfsz	??_servo_1_3,f
  3860  0E98  2E95               	goto	u2867
  3861  0E99  2E9A               	nop2
  3862  0E9A  2E9B               	nop2
  3863  0E9B  2E9C               	nop2
  3864  0E9C                     l1971:
  3865                           
  3866                           ;main_brazo.c: 343: void servo_2_5(void){
  3867  0E9C  1283               	bcf	3,5	;RP0=0, select bank0
  3868  0E9D  1303               	bcf	3,6	;RP1=0, select bank0
  3869  0E9E  1008               	bcf	8,0	;volatile
  3870                           
  3871                           ;main_brazo.c: 344:     RD1 = 1;
  3872  0E9F  3019               	movlw	25
  3873  0EA0  1283               	bcf	3,5	;RP0=0, select bank0
  3874  0EA1  1303               	bcf	3,6	;RP1=0, select bank0
  3875  0EA2  00A6               	movwf	??_servo_1_3+1
  3876  0EA3  3004               	movlw	4
  3877  0EA4  00A5               	movwf	??_servo_1_3
  3878  0EA5                     u2877:
  3879  0EA5  0BA5               	decfsz	??_servo_1_3,f
  3880  0EA6  2EA5               	goto	u2877
  3881  0EA7  0BA6               	decfsz	??_servo_1_3+1,f
  3882  0EA8  2EA5               	goto	u2877
  3883  0EA9  0000               	nop
  3884  0EAA                     l273:
  3885  0EAA  0008               	return
  3886  0EAB                     __end_of_servo_1_3:
  3887                           
  3888                           	psect	text16
  3889  0D7B                     __ptext16:	
  3890 ;; *************** function _servo_1_2 *****************
  3891 ;; Defined at:
  3892 ;;		line 333 in file "main_brazo.c"
  3893 ;; Parameters:    Size  Location     Type
  3894 ;;		None
  3895 ;; Auto vars:     Size  Location     Type
  3896 ;;		None
  3897 ;; Return value:  Size  Location     Type
  3898 ;;                  1    wreg      void 
  3899 ;; Registers used:
  3900 ;;		wreg
  3901 ;; Tracked objects:
  3902 ;;		On entry : 0/0
  3903 ;;		On exit  : 0/0
  3904 ;;		Unchanged: 0/0
  3905 ;; Data sizes:     COMMON   BANK0   BANK1   BANK3   BANK2
  3906 ;;      Params:         0       0       0       0       0
  3907 ;;      Locals:         0       0       0       0       0
  3908 ;;      Temps:          0       2       0       0       0
  3909 ;;      Totals:         0       2       0       0       0
  3910 ;;Total ram usage:        2 bytes
  3911 ;; Hardware stack levels used:    1
  3912 ;; Hardware stack levels required when called:    3
  3913 ;; This function calls:
  3914 ;;		Nothing
  3915 ;; This function is called by:
  3916 ;;		_mensaje
  3917 ;; This function uses a non-reentrant model
  3918 ;;
  3919                           
  3920                           
  3921                           ;psect for function _servo_1_2
  3922  0D7B                     _servo_1_2:
  3923  0D7B                     l1961:	
  3924                           ;incstack = 0
  3925                           ; Regs used in _servo_1_2: [wreg]
  3926                           
  3927                           
  3928                           ;main_brazo.c: 334: }
  3929  0D7B  1283               	bcf	3,5	;RP0=0, select bank0
  3930  0D7C  1303               	bcf	3,6	;RP1=0, select bank0
  3931  0D7D  1408               	bsf	8,0	;volatile
  3932  0D7E                     l1963:
  3933                           
  3934                           ;main_brazo.c: 335: 
  3935  0D7E  30F9               	movlw	249
  3936  0D7F  1283               	bcf	3,5	;RP0=0, select bank0
  3937  0D80  1303               	bcf	3,6	;RP1=0, select bank0
  3938  0D81  00A5               	movwf	??_servo_1_2
  3939  0D82                     u2887:
  3940  0D82  2D83               	nop2
  3941  0D83  0BA5               	decfsz	??_servo_1_2,f
  3942  0D84  2D82               	goto	u2887
  3943  0D85  2D86               	nop2
  3944  0D86                     l1965:
  3945                           
  3946                           ;main_brazo.c: 336: void servo_2_4(void){
  3947  0D86  1283               	bcf	3,5	;RP0=0, select bank0
  3948  0D87  1303               	bcf	3,6	;RP1=0, select bank0
  3949  0D88  1008               	bcf	8,0	;volatile
  3950                           
  3951                           ;main_brazo.c: 337:     RD1 = 1;
  3952  0D89  3019               	movlw	25
  3953  0D8A  1283               	bcf	3,5	;RP0=0, select bank0
  3954  0D8B  1303               	bcf	3,6	;RP1=0, select bank0
  3955  0D8C  00A6               	movwf	??_servo_1_2+1
  3956  0D8D  3057               	movlw	87
  3957  0D8E  00A5               	movwf	??_servo_1_2
  3958  0D8F                     u2897:
  3959  0D8F  0BA5               	decfsz	??_servo_1_2,f
  3960  0D90  2D8F               	goto	u2897
  3961  0D91  0BA6               	decfsz	??_servo_1_2+1,f
  3962  0D92  2D8F               	goto	u2897
  3963  0D93  2D94               	nop2
  3964  0D94                     l270:
  3965  0D94  0008               	return
  3966  0D95                     __end_of_servo_1_2:
  3967                           
  3968                           	psect	text17
  3969  0D30                     __ptext17:	
  3970 ;; *************** function _servo_1_1 *****************
  3971 ;; Defined at:
  3972 ;;		line 326 in file "main_brazo.c"
  3973 ;; Parameters:    Size  Location     Type
  3974 ;;		None
  3975 ;; Auto vars:     Size  Location     Type
  3976 ;;		None
  3977 ;; Return value:  Size  Location     Type
  3978 ;;                  1    wreg      void 
  3979 ;; Registers used:
  3980 ;;		wreg
  3981 ;; Tracked objects:
  3982 ;;		On entry : 0/0
  3983 ;;		On exit  : 0/0
  3984 ;;		Unchanged: 0/0
  3985 ;; Data sizes:     COMMON   BANK0   BANK1   BANK3   BANK2
  3986 ;;      Params:         0       0       0       0       0
  3987 ;;      Locals:         0       0       0       0       0
  3988 ;;      Temps:          0       2       0       0       0
  3989 ;;      Totals:         0       2       0       0       0
  3990 ;;Total ram usage:        2 bytes
  3991 ;; Hardware stack levels used:    1
  3992 ;; Hardware stack levels required when called:    3
  3993 ;; This function calls:
  3994 ;;		Nothing
  3995 ;; This function is called by:
  3996 ;;		_mensaje
  3997 ;; This function uses a non-reentrant model
  3998 ;;
  3999                           
  4000                           
  4001                           ;psect for function _servo_1_1
  4002  0D30                     _servo_1_1:
  4003  0D30                     l1955:	
  4004                           ;incstack = 0
  4005                           ; Regs used in _servo_1_1: [wreg]
  4006                           
  4007                           
  4008                           ;main_brazo.c: 327: }
  4009  0D30  1283               	bcf	3,5	;RP0=0, select bank0
  4010  0D31  1303               	bcf	3,6	;RP1=0, select bank0
  4011  0D32  1408               	bsf	8,0	;volatile
  4012  0D33                     l1957:
  4013                           
  4014                           ;main_brazo.c: 328: 
  4015  0D33  30E8               	movlw	232
  4016  0D34  1283               	bcf	3,5	;RP0=0, select bank0
  4017  0D35  1303               	bcf	3,6	;RP1=0, select bank0
  4018  0D36  00A5               	movwf	??_servo_1_1
  4019  0D37                     u2907:
  4020  0D37  0BA5               	decfsz	??_servo_1_1,f
  4021  0D38  2D37               	goto	u2907
  4022  0D39  0000               	nop
  4023  0D3A                     l1959:
  4024                           
  4025                           ;main_brazo.c: 329: void servo_2_3(void){
  4026  0D3A  1283               	bcf	3,5	;RP0=0, select bank0
  4027  0D3B  1303               	bcf	3,6	;RP1=0, select bank0
  4028  0D3C  1008               	bcf	8,0	;volatile
  4029                           
  4030                           ;main_brazo.c: 330:     RD1 = 1;
  4031  0D3D  301A               	movlw	26
  4032  0D3E  1283               	bcf	3,5	;RP0=0, select bank0
  4033  0D3F  1303               	bcf	3,6	;RP1=0, select bank0
  4034  0D40  00A6               	movwf	??_servo_1_1+1
  4035  0D41  300E               	movlw	14
  4036  0D42  00A5               	movwf	??_servo_1_1
  4037  0D43                     u2917:
  4038  0D43  0BA5               	decfsz	??_servo_1_1,f
  4039  0D44  2D43               	goto	u2917
  4040  0D45  0BA6               	decfsz	??_servo_1_1+1,f
  4041  0D46  2D43               	goto	u2917
  4042  0D47  0000               	nop
  4043  0D48                     l267:
  4044  0D48  0008               	return
  4045  0D49                     __end_of_servo_1_1:
  4046                           
  4047                           	psect	text18
  4048  0EE5                     __ptext18:	
  4049 ;; *************** function _printf *****************
  4050 ;; Defined at:
  4051 ;;		line 477 in file "C:\Program Files\Microchip\xc8\v2.31\pic\sources\c90\common\doprnt.c"
  4052 ;; Parameters:    Size  Location     Type
  4053 ;;  f               2    6[BANK0 ] PTR const unsigned char 
  4054 ;;		 -> STR_30(13), STR_29(15), STR_28(13), STR_27(38), 
  4055 ;;		 -> STR_26(9), STR_25(9), STR_24(8), STR_23(10), 
  4056 ;;		 -> STR_22(10), STR_21(55), STR_20(9), STR_19(9), 
  4057 ;;		 -> STR_18(8), STR_17(10), STR_16(10), STR_15(55), 
  4058 ;;		 -> STR_14(9), STR_13(9), STR_12(8), STR_11(10), 
  4059 ;;		 -> STR_10(10), STR_9(55), STR_8(13), STR_7(13), 
  4060 ;;		 -> STR_6(13), STR_5(37), STR_4(7), STR_3(18), 
  4061 ;;		 -> STR_2(19), STR_1(30), 
  4062 ;; Auto vars:     Size  Location     Type
  4063 ;;  tmpval          4    0        struct .
  4064 ;;  cp              2    0        PTR const unsigned char 
  4065 ;;  len             2    0        unsigned int 
  4066 ;;  val             2    0        unsigned int 
  4067 ;;  c               1   12[BANK0 ] unsigned char 
  4068 ;;  ap              1   11[BANK0 ] PTR void [1]
  4069 ;;		 -> ?_printf(2), 
  4070 ;;  flag            1    0        unsigned char 
  4071 ;;  prec            1    0        char 
  4072 ;; Return value:  Size  Location     Type
  4073 ;;                  2    6[BANK0 ] int 
  4074 ;; Registers used:
  4075 ;;		wreg, fsr0l, fsr0h, status,2, status,0, btemp+1, pclath, cstack
  4076 ;; Tracked objects:
  4077 ;;		On entry : 0/0
  4078 ;;		On exit  : 0/0
  4079 ;;		Unchanged: 0/0
  4080 ;; Data sizes:     COMMON   BANK0   BANK1   BANK3   BANK2
  4081 ;;      Params:         0       2       0       0       0
  4082 ;;      Locals:         0       2       0       0       0
  4083 ;;      Temps:          0       3       0       0       0
  4084 ;;      Totals:         0       7       0       0       0
  4085 ;;Total ram usage:        7 bytes
  4086 ;; Hardware stack levels used:    1
  4087 ;; Hardware stack levels required when called:    4
  4088 ;; This function calls:
  4089 ;;		_putch
  4090 ;; This function is called by:
  4091 ;;		_mensaje
  4092 ;; This function uses a non-reentrant model
  4093 ;;
  4094                           
  4095                           
  4096                           ;psect for function _printf
  4097  0EE5                     _printf:
  4098  0EE5                     l2045:	
  4099                           ;incstack = 0
  4100                           ; Regs used in _printf: [wreg-fsr0h+status,2+status,0+btemp+1+pclath+cstack]
  4101                           
  4102                           
  4103                           ;C:\Program Files\Microchip\xc8\v2.31\pic\sources\c90\common\doprnt.c: 477: printf(const
      +                           char * f, ...);C:\Program Files\Microchip\xc8\v2.31\pic\sources\c90\common\doprnt.c: 47
      +                          8: {;C:\Program Files\Microchip\xc8\v2.31\pic\sources\c90\common\doprnt.c: 479:  va_list
      +                           ap;;C:\Program Files\Microchip\xc8\v2.31\pic\sources\c90\common\doprnt.c: 512:  char c;
      +                          ;C:\Program Files\Microchip\xc8\v2.31\pic\sources\c90\common\doprnt.c: 521:  signed char
      +                           prec;;C:\Program Files\Microchip\xc8\v2.31\pic\sources\c90\common\doprnt.c: 525:  unsig
      +                          ned char flag;
  4104  0EE5  3028               	movlw	(low ((?_printf| 0+2)))& (0+255)
  4105  0EE6  1283               	bcf	3,5	;RP0=0, select bank0
  4106  0EE7  1303               	bcf	3,6	;RP1=0, select bank0
  4107  0EE8  00A8               	movwf	??_printf
  4108  0EE9  0828               	movf	??_printf,w
  4109  0EEA  00AB               	movwf	printf@ap
  4110                           
  4111                           ;C:\Program Files\Microchip\xc8\v2.31\pic\sources\c90\common\doprnt.c: 553:  while((c = 
      +                          *f++)) {
  4112  0EEB  2EF2               	goto	l2049
  4113  0EEC                     l2047:
  4114                           
  4115                           ;C:\Program Files\Microchip\xc8\v2.31\pic\sources\c90\common\doprnt.c: 557:   {;C:\Progr
      +                          am Files\Microchip\xc8\v2.31\pic\sources\c90\common\doprnt.c: 558:    (putch(c) );
  4116  0EEC  082C               	movf	printf@c,w
  4117  0EED  120A  158A  2360  120A  158A  	fcall	_putch
  4118  0EF2                     l2049:	
  4119                           ;C:\Program Files\Microchip\xc8\v2.31\pic\sources\c90\common\doprnt.c: 559:    continue;
  4120                           
  4121                           
  4122                           ;C:\Program Files\Microchip\xc8\v2.31\pic\sources\c90\common\doprnt.c: 553:  while((c = 
      +                          *f++)) {
  4123  0EF2  1283               	bcf	3,5	;RP0=0, select bank0
  4124  0EF3  1303               	bcf	3,6	;RP1=0, select bank0
  4125  0EF4  0827               	movf	printf@f+1,w
  4126  0EF5  00A9               	movwf	??_printf+1
  4127  0EF6  0826               	movf	printf@f,w
  4128  0EF7  00A8               	movwf	??_printf
  4129  0EF8  0AA6               	incf	printf@f,f
  4130  0EF9  1903               	skipnz
  4131  0EFA  0AA7               	incf	printf@f+1,f
  4132  0EFB  0829               	movf	??_printf+1,w
  4133  0EFC  00FF               	movwf	btemp+1
  4134  0EFD  0828               	movf	??_printf,w
  4135  0EFE  0084               	movwf	4
  4136  0EFF  120A  158A  214A  120A  158A  	fcall	stringtab
  4137  0F04  00AA               	movwf	??_printf+2
  4138  0F05  082A               	movf	??_printf+2,w
  4139  0F06  00AC               	movwf	printf@c
  4140  0F07  082C               	movf	printf@c,w
  4141  0F08  1D03               	btfss	3,2
  4142  0F09  2F0B               	goto	u1271
  4143  0F0A  2F0C               	goto	u1270
  4144  0F0B                     u1271:
  4145  0F0B  2EEC               	goto	l2047
  4146  0F0C                     u1270:
  4147  0F0C                     l467:
  4148  0F0C  0008               	return
  4149  0F0D                     __end_of_printf:
  4150                           
  4151                           	psect	text19
  4152  0B60                     __ptext19:	
  4153 ;; *************** function _putch *****************
  4154 ;; Defined at:
  4155 ;;		line 449 in file "main_brazo.c"
  4156 ;; Parameters:    Size  Location     Type
  4157 ;;  dato            1    wreg     unsigned char 
  4158 ;; Auto vars:     Size  Location     Type
  4159 ;;  dato            1    5[BANK0 ] unsigned char 
  4160 ;; Return value:  Size  Location     Type
  4161 ;;                  1    wreg      void 
  4162 ;; Registers used:
  4163 ;;		wreg
  4164 ;; Tracked objects:
  4165 ;;		On entry : 0/0
  4166 ;;		On exit  : 0/0
  4167 ;;		Unchanged: 0/0
  4168 ;; Data sizes:     COMMON   BANK0   BANK1   BANK3   BANK2
  4169 ;;      Params:         0       0       0       0       0
  4170 ;;      Locals:         0       1       0       0       0
  4171 ;;      Temps:          0       0       0       0       0
  4172 ;;      Totals:         0       1       0       0       0
  4173 ;;Total ram usage:        1 bytes
  4174 ;; Hardware stack levels used:    1
  4175 ;; Hardware stack levels required when called:    3
  4176 ;; This function calls:
  4177 ;;		Nothing
  4178 ;; This function is called by:
  4179 ;;		_printf
  4180 ;; This function uses a non-reentrant model
  4181 ;;
  4182                           
  4183                           
  4184                           ;psect for function _putch
  4185  0B60                     _putch:
  4186                           
  4187                           ;incstack = 0
  4188                           ; Regs used in _putch: [wreg]
  4189                           ;putch@dato stored from wreg
  4190  0B60  1283               	bcf	3,5	;RP0=0, select bank0
  4191  0B61  1303               	bcf	3,6	;RP1=0, select bank0
  4192  0B62  00A5               	movwf	putch@dato
  4193  0B63                     l1889:
  4194  0B63                     l321:	
  4195                           ;main_brazo.c: 450:             }
  4196                           
  4197  0B63  1E0C               	btfss	12,4	;volatile
  4198  0B64  2B66               	goto	u1161
  4199  0B65  2B67               	goto	u1160
  4200  0B66                     u1161:
  4201  0B66  2B63               	goto	l321
  4202  0B67                     u1160:
  4203  0B67                     l1891:
  4204                           
  4205                           ;main_brazo.c: 451:             if (RCREG == '4'){
  4206  0B67  0825               	movf	putch@dato,w
  4207  0B68  0099               	movwf	25	;volatile
  4208  0B69                     l324:
  4209  0B69  0008               	return
  4210  0B6A                     __end_of_putch:
  4211                           
  4212                           	psect	text20
  4213  0B5A                     __ptext20:	
  4214 ;; *************** function _motor_detenido *****************
  4215 ;; Defined at:
  4216 ;;		line 431 in file "main_brazo.c"
  4217 ;; Parameters:    Size  Location     Type
  4218 ;;		None
  4219 ;; Auto vars:     Size  Location     Type
  4220 ;;		None
  4221 ;; Return value:  Size  Location     Type
  4222 ;;                  1    wreg      void 
  4223 ;; Registers used:
  4224 ;;		status,2
  4225 ;; Tracked objects:
  4226 ;;		On entry : 0/0
  4227 ;;		On exit  : 0/0
  4228 ;;		Unchanged: 0/0
  4229 ;; Data sizes:     COMMON   BANK0   BANK1   BANK3   BANK2
  4230 ;;      Params:         0       0       0       0       0
  4231 ;;      Locals:         0       0       0       0       0
  4232 ;;      Temps:          0       0       0       0       0
  4233 ;;      Totals:         0       0       0       0       0
  4234 ;;Total ram usage:        0 bytes
  4235 ;; Hardware stack levels used:    1
  4236 ;; Hardware stack levels required when called:    3
  4237 ;; This function calls:
  4238 ;;		Nothing
  4239 ;; This function is called by:
  4240 ;;		_mensaje
  4241 ;; This function uses a non-reentrant model
  4242 ;;
  4243                           
  4244                           
  4245                           ;psect for function _motor_detenido
  4246  0B5A                     _motor_detenido:
  4247  0B5A                     l1939:	
  4248                           ;incstack = 0
  4249                           ; Regs used in _motor_detenido: [status,2]
  4250                           
  4251                           
  4252                           ;main_brazo.c: 432:             printf("\r 1: -45 ");
  4253  0B5A  1283               	bcf	3,5	;RP0=0, select bank0
  4254  0B5B  1303               	bcf	3,6	;RP1=0, select bank0
  4255  0B5C  0195               	clrf	21	;volatile
  4256                           
  4257                           ;main_brazo.c: 433:             _delay((unsigned long)((250)*(4000000/4000.0)));
  4258  0B5D  019B               	clrf	27	;volatile
  4259  0B5E                     l1941:
  4260                           
  4261                           ;main_brazo.c: 434:             printf("\r 2: -90 ");
  4262  0B5E  1509               	bsf	9,2	;volatile
  4263  0B5F                     l312:
  4264  0B5F  0008               	return
  4265  0B60                     __end_of_motor_detenido:
  4266                           
  4267                           	psect	text21
  4268  0D17                     __ptext21:	
  4269 ;; *************** function _motor_2 *****************
  4270 ;; Defined at:
  4271 ;;		line 443 in file "main_brazo.c"
  4272 ;; Parameters:    Size  Location     Type
  4273 ;;		None
  4274 ;; Auto vars:     Size  Location     Type
  4275 ;;		None
  4276 ;; Return value:  Size  Location     Type
  4277 ;;                  1    wreg      void 
  4278 ;; Registers used:
  4279 ;;		wreg, status,2, status,0, pclath, cstack
  4280 ;; Tracked objects:
  4281 ;;		On entry : 0/0
  4282 ;;		On exit  : 0/0
  4283 ;;		Unchanged: 0/0
  4284 ;; Data sizes:     COMMON   BANK0   BANK1   BANK3   BANK2
  4285 ;;      Params:         0       0       0       0       0
  4286 ;;      Locals:         0       0       0       0       0
  4287 ;;      Temps:          0       2       0       0       0
  4288 ;;      Totals:         0       2       0       0       0
  4289 ;;Total ram usage:        2 bytes
  4290 ;; Hardware stack levels used:    1
  4291 ;; Hardware stack levels required when called:    4
  4292 ;; This function calls:
  4293 ;;		___awdiv
  4294 ;; This function is called by:
  4295 ;;		_mensaje
  4296 ;; This function uses a non-reentrant model
  4297 ;;
  4298                           
  4299                           
  4300                           ;psect for function _motor_2
  4301  0D17                     _motor_2:
  4302  0D17                     l1949:	
  4303                           ;incstack = 0
  4304                           ; Regs used in _motor_2: [wreg+status,2+status,0+pclath+cstack]
  4305                           
  4306                           
  4307                           ;main_brazo.c: 444:             }
  4308  0D17  1283               	bcf	3,5	;RP0=0, select bank0
  4309  0D18  1303               	bcf	3,6	;RP1=0, select bank0
  4310  0D19  0195               	clrf	21	;volatile
  4311  0D1A                     l1951:
  4312                           
  4313                           ;main_brazo.c: 445:             if (RCREG == '2'){
  4314  0D1A  3004               	movlw	4
  4315  0D1B  00A5               	movwf	___awdiv@divisor
  4316  0D1C  3000               	movlw	0
  4317  0D1D  00A6               	movwf	___awdiv@divisor+1
  4318  0D1E  081E               	movf	30,w	;volatile
  4319  0D1F  00AE               	movwf	??_motor_2
  4320  0D20  01AF               	clrf	??_motor_2+1
  4321  0D21  082E               	movf	??_motor_2,w
  4322  0D22  00A7               	movwf	___awdiv@dividend
  4323  0D23  082F               	movf	??_motor_2+1,w
  4324  0D24  00A8               	movwf	___awdiv@dividend+1
  4325  0D25  120A  118A  2782  120A  158A  	fcall	___awdiv
  4326  0D2A  1283               	bcf	3,5	;RP0=0, select bank0
  4327  0D2B  1303               	bcf	3,6	;RP1=0, select bank0
  4328  0D2C  0825               	movf	?___awdiv,w
  4329  0D2D  009B               	movwf	27	;volatile
  4330  0D2E                     l1953:
  4331                           
  4332                           ;main_brazo.c: 446:                 servo_1_2();
  4333  0D2E  1489               	bsf	9,1	;volatile
  4334  0D2F                     l318:
  4335  0D2F  0008               	return
  4336  0D30                     __end_of_motor_2:
  4337                           
  4338                           	psect	text22
  4339  0CFE                     __ptext22:	
  4340 ;; *************** function _motor_1 *****************
  4341 ;; Defined at:
  4342 ;;		line 437 in file "main_brazo.c"
  4343 ;; Parameters:    Size  Location     Type
  4344 ;;		None
  4345 ;; Auto vars:     Size  Location     Type
  4346 ;;		None
  4347 ;; Return value:  Size  Location     Type
  4348 ;;                  1    wreg      void 
  4349 ;; Registers used:
  4350 ;;		wreg, status,2, status,0, pclath, cstack
  4351 ;; Tracked objects:
  4352 ;;		On entry : 0/0
  4353 ;;		On exit  : 0/0
  4354 ;;		Unchanged: 0/0
  4355 ;; Data sizes:     COMMON   BANK0   BANK1   BANK3   BANK2
  4356 ;;      Params:         0       0       0       0       0
  4357 ;;      Locals:         0       0       0       0       0
  4358 ;;      Temps:          0       2       0       0       0
  4359 ;;      Totals:         0       2       0       0       0
  4360 ;;Total ram usage:        2 bytes
  4361 ;; Hardware stack levels used:    1
  4362 ;; Hardware stack levels required when called:    4
  4363 ;; This function calls:
  4364 ;;		___awdiv
  4365 ;; This function is called by:
  4366 ;;		_mensaje
  4367 ;; This function uses a non-reentrant model
  4368 ;;
  4369                           
  4370                           
  4371                           ;psect for function _motor_1
  4372  0CFE                     _motor_1:
  4373  0CFE                     l1943:	
  4374                           ;incstack = 0
  4375                           ; Regs used in _motor_1: [wreg+status,2+status,0+pclath+cstack]
  4376                           
  4377                           
  4378                           ;main_brazo.c: 438:             printf("\r 4: 90 ");
  4379  0CFE  3004               	movlw	4
  4380  0CFF  1283               	bcf	3,5	;RP0=0, select bank0
  4381  0D00  1303               	bcf	3,6	;RP1=0, select bank0
  4382  0D01  00A5               	movwf	___awdiv@divisor
  4383  0D02  3000               	movlw	0
  4384  0D03  00A6               	movwf	___awdiv@divisor+1
  4385  0D04  081E               	movf	30,w	;volatile
  4386  0D05  00AE               	movwf	??_motor_1
  4387  0D06  01AF               	clrf	??_motor_1+1
  4388  0D07  082E               	movf	??_motor_1,w
  4389  0D08  00A7               	movwf	___awdiv@dividend
  4390  0D09  082F               	movf	??_motor_1+1,w
  4391  0D0A  00A8               	movwf	___awdiv@dividend+1
  4392  0D0B  120A  118A  2782  120A  158A  	fcall	___awdiv
  4393  0D10  1283               	bcf	3,5	;RP0=0, select bank0
  4394  0D11  1303               	bcf	3,6	;RP1=0, select bank0
  4395  0D12  0825               	movf	?___awdiv,w
  4396  0D13  0095               	movwf	21	;volatile
  4397  0D14                     l1945:
  4398                           
  4399                           ;main_brazo.c: 439:             _delay((unsigned long)((250)*(4000000/4000.0)));
  4400  0D14  019B               	clrf	27	;volatile
  4401  0D15                     l1947:
  4402                           
  4403                           ;main_brazo.c: 440:             printf("\r 5: 45 ");
  4404  0D15  1409               	bsf	9,0	;volatile
  4405  0D16                     l315:
  4406  0D16  0008               	return
  4407  0D17                     __end_of_motor_1:
  4408                           
  4409                           	psect	text23
  4410  0782                     __ptext23:	
  4411 ;; *************** function ___awdiv *****************
  4412 ;; Defined at:
  4413 ;;		line 5 in file "C:\Program Files\Microchip\xc8\v2.31\pic\sources\c90\common\awdiv.c"
  4414 ;; Parameters:    Size  Location     Type
  4415 ;;  divisor         2    5[BANK0 ] int 
  4416 ;;  dividend        2    7[BANK0 ] int 
  4417 ;; Auto vars:     Size  Location     Type
  4418 ;;  quotient        2   12[BANK0 ] int 
  4419 ;;  sign            1   11[BANK0 ] unsigned char 
  4420 ;;  counter         1   10[BANK0 ] unsigned char 
  4421 ;; Return value:  Size  Location     Type
  4422 ;;                  2    5[BANK0 ] int 
  4423 ;; Registers used:
  4424 ;;		wreg, status,2, status,0
  4425 ;; Tracked objects:
  4426 ;;		On entry : 0/0
  4427 ;;		On exit  : 0/0
  4428 ;;		Unchanged: 0/0
  4429 ;; Data sizes:     COMMON   BANK0   BANK1   BANK3   BANK2
  4430 ;;      Params:         0       4       0       0       0
  4431 ;;      Locals:         0       4       0       0       0
  4432 ;;      Temps:          0       1       0       0       0
  4433 ;;      Totals:         0       9       0       0       0
  4434 ;;Total ram usage:        9 bytes
  4435 ;; Hardware stack levels used:    1
  4436 ;; Hardware stack levels required when called:    3
  4437 ;; This function calls:
  4438 ;;		Nothing
  4439 ;; This function is called by:
  4440 ;;		_motor_1
  4441 ;;		_motor_2
  4442 ;; This function uses a non-reentrant model
  4443 ;;
  4444                           
  4445                           
  4446                           ;psect for function ___awdiv
  4447  0782                     ___awdiv:
  4448  0782                     l1895:	
  4449                           ;incstack = 0
  4450                           ; Regs used in ___awdiv: [wreg+status,2+status,0]
  4451                           
  4452  0782  1283               	bcf	3,5	;RP0=0, select bank0
  4453  0783  1303               	bcf	3,6	;RP1=0, select bank0
  4454  0784  01AB               	clrf	___awdiv@sign
  4455  0785                     l1897:
  4456  0785  1FA6               	btfss	___awdiv@divisor+1,7
  4457  0786  2F88               	goto	u1171
  4458  0787  2F89               	goto	u1170
  4459  0788                     u1171:
  4460  0788  2F90               	goto	l1903
  4461  0789                     u1170:
  4462  0789                     l1899:
  4463  0789  09A5               	comf	___awdiv@divisor,f
  4464  078A  09A6               	comf	___awdiv@divisor+1,f
  4465  078B  0AA5               	incf	___awdiv@divisor,f
  4466  078C  1903               	skipnz
  4467  078D  0AA6               	incf	___awdiv@divisor+1,f
  4468  078E                     l1901:
  4469  078E  01AB               	clrf	___awdiv@sign
  4470  078F  0AAB               	incf	___awdiv@sign,f
  4471  0790                     l1903:
  4472  0790  1FA8               	btfss	___awdiv@dividend+1,7
  4473  0791  2F93               	goto	u1181
  4474  0792  2F94               	goto	u1180
  4475  0793                     u1181:
  4476  0793  2F9D               	goto	l1909
  4477  0794                     u1180:
  4478  0794                     l1905:
  4479  0794  09A7               	comf	___awdiv@dividend,f
  4480  0795  09A8               	comf	___awdiv@dividend+1,f
  4481  0796  0AA7               	incf	___awdiv@dividend,f
  4482  0797  1903               	skipnz
  4483  0798  0AA8               	incf	___awdiv@dividend+1,f
  4484  0799                     l1907:
  4485  0799  3001               	movlw	1
  4486  079A  00A9               	movwf	??___awdiv
  4487  079B  0829               	movf	??___awdiv,w
  4488  079C  06AB               	xorwf	___awdiv@sign,f
  4489  079D                     l1909:
  4490  079D  01AC               	clrf	___awdiv@quotient
  4491  079E  01AD               	clrf	___awdiv@quotient+1
  4492  079F                     l1911:
  4493  079F  0825               	movf	___awdiv@divisor,w
  4494  07A0  0426               	iorwf	___awdiv@divisor+1,w
  4495  07A1  1903               	btfsc	3,2
  4496  07A2  2FA4               	goto	u1191
  4497  07A3  2FA5               	goto	u1190
  4498  07A4                     u1191:
  4499  07A4  2FDC               	goto	l1931
  4500  07A5                     u1190:
  4501  07A5                     l1913:
  4502  07A5  01AA               	clrf	___awdiv@counter
  4503  07A6  0AAA               	incf	___awdiv@counter,f
  4504  07A7  2FB3               	goto	l1919
  4505  07A8                     l1915:
  4506  07A8  3001               	movlw	1
  4507  07A9                     u1205:
  4508  07A9  1003               	clrc
  4509  07AA  0DA5               	rlf	___awdiv@divisor,f
  4510  07AB  0DA6               	rlf	___awdiv@divisor+1,f
  4511  07AC  3EFF               	addlw	-1
  4512  07AD  1D03               	skipz
  4513  07AE  2FA9               	goto	u1205
  4514  07AF                     l1917:
  4515  07AF  3001               	movlw	1
  4516  07B0  00A9               	movwf	??___awdiv
  4517  07B1  0829               	movf	??___awdiv,w
  4518  07B2  07AA               	addwf	___awdiv@counter,f
  4519  07B3                     l1919:
  4520  07B3  1FA6               	btfss	___awdiv@divisor+1,7
  4521  07B4  2FB6               	goto	u1211
  4522  07B5  2FB7               	goto	u1210
  4523  07B6                     u1211:
  4524  07B6  2FA8               	goto	l1915
  4525  07B7                     u1210:
  4526  07B7                     l1921:
  4527  07B7  3001               	movlw	1
  4528  07B8                     u1225:
  4529  07B8  1003               	clrc
  4530  07B9  0DAC               	rlf	___awdiv@quotient,f
  4531  07BA  0DAD               	rlf	___awdiv@quotient+1,f
  4532  07BB  3EFF               	addlw	-1
  4533  07BC  1D03               	skipz
  4534  07BD  2FB8               	goto	u1225
  4535  07BE  0826               	movf	___awdiv@divisor+1,w
  4536  07BF  0228               	subwf	___awdiv@dividend+1,w
  4537  07C0  1D03               	skipz
  4538  07C1  2FC4               	goto	u1235
  4539  07C2  0825               	movf	___awdiv@divisor,w
  4540  07C3  0227               	subwf	___awdiv@dividend,w
  4541  07C4                     u1235:
  4542  07C4  1C03               	skipc
  4543  07C5  2FC7               	goto	u1231
  4544  07C6  2FC8               	goto	u1230
  4545  07C7                     u1231:
  4546  07C7  2FCF               	goto	l1927
  4547  07C8                     u1230:
  4548  07C8                     l1923:
  4549  07C8  0825               	movf	___awdiv@divisor,w
  4550  07C9  02A7               	subwf	___awdiv@dividend,f
  4551  07CA  0826               	movf	___awdiv@divisor+1,w
  4552  07CB  1C03               	skipc
  4553  07CC  03A8               	decf	___awdiv@dividend+1,f
  4554  07CD  02A8               	subwf	___awdiv@dividend+1,f
  4555  07CE                     l1925:
  4556  07CE  142C               	bsf	___awdiv@quotient,0
  4557  07CF                     l1927:
  4558  07CF  3001               	movlw	1
  4559  07D0                     u1245:
  4560  07D0  1003               	clrc
  4561  07D1  0CA6               	rrf	___awdiv@divisor+1,f
  4562  07D2  0CA5               	rrf	___awdiv@divisor,f
  4563  07D3  3EFF               	addlw	-1
  4564  07D4  1D03               	skipz
  4565  07D5  2FD0               	goto	u1245
  4566  07D6                     l1929:
  4567  07D6  3001               	movlw	1
  4568  07D7  02AA               	subwf	___awdiv@counter,f
  4569  07D8  1D03               	btfss	3,2
  4570  07D9  2FDB               	goto	u1251
  4571  07DA  2FDC               	goto	u1250
  4572  07DB                     u1251:
  4573  07DB  2FB7               	goto	l1921
  4574  07DC                     u1250:
  4575  07DC                     l1931:
  4576  07DC  082B               	movf	___awdiv@sign,w
  4577  07DD  1903               	btfsc	3,2
  4578  07DE  2FE0               	goto	u1261
  4579  07DF  2FE1               	goto	u1260
  4580  07E0                     u1261:
  4581  07E0  2FE6               	goto	l1935
  4582  07E1                     u1260:
  4583  07E1                     l1933:
  4584  07E1  09AC               	comf	___awdiv@quotient,f
  4585  07E2  09AD               	comf	___awdiv@quotient+1,f
  4586  07E3  0AAC               	incf	___awdiv@quotient,f
  4587  07E4  1903               	skipnz
  4588  07E5  0AAD               	incf	___awdiv@quotient+1,f
  4589  07E6                     l1935:
  4590  07E6  082D               	movf	___awdiv@quotient+1,w
  4591  07E7  00A6               	movwf	?___awdiv+1
  4592  07E8  082C               	movf	___awdiv@quotient,w
  4593  07E9  00A5               	movwf	?___awdiv
  4594  07EA                     l624:
  4595  07EA  0008               	return
  4596  07EB                     __end_of___awdiv:
  4597                           
  4598                           	psect	text24
  4599  0436                     __ptext24:	
  4600 ;; *************** function _isr *****************
  4601 ;; Defined at:
  4602 ;;		line 87 in file "main_brazo.c"
  4603 ;; Parameters:    Size  Location     Type
  4604 ;;		None
  4605 ;; Auto vars:     Size  Location     Type
  4606 ;;		None
  4607 ;; Return value:  Size  Location     Type
  4608 ;;                  1    wreg      void 
  4609 ;; Registers used:
  4610 ;;		wreg, status,2, status,0, pclath, cstack
  4611 ;; Tracked objects:
  4612 ;;		On entry : 0/0
  4613 ;;		On exit  : 0/0
  4614 ;;		Unchanged: 0/0
  4615 ;; Data sizes:     COMMON   BANK0   BANK1   BANK3   BANK2
  4616 ;;      Params:         0       0       0       0       0
  4617 ;;      Locals:         0       0       0       0       0
  4618 ;;      Temps:          0       5       0       0       0
  4619 ;;      Totals:         0       5       0       0       0
  4620 ;;Total ram usage:        5 bytes
  4621 ;; Hardware stack levels used:    1
  4622 ;; Hardware stack levels required when called:    2
  4623 ;; This function calls:
  4624 ;;		_escribir_eeprom
  4625 ;;		_leer_eeprom
  4626 ;;		i1_motor_1
  4627 ;;		i1_motor_2
  4628 ;;		i1_motor_detenido
  4629 ;;		i1_servo_1_1
  4630 ;;		i1_servo_1_2
  4631 ;;		i1_servo_1_3
  4632 ;;		i1_servo_1_4
  4633 ;;		i1_servo_1_5
  4634 ;;		i1_servo_2_1
  4635 ;;		i1_servo_2_2
  4636 ;;		i1_servo_2_3
  4637 ;;		i1_servo_2_4
  4638 ;;		i1_servo_2_5
  4639 ;;		i1_servo_3_1
  4640 ;;		i1_servo_3_2
  4641 ;;		i1_servo_3_3
  4642 ;;		i1_servo_3_4
  4643 ;;		i1_servo_3_5
  4644 ;; This function is called by:
  4645 ;;		Interrupt level 1
  4646 ;; This function uses a non-reentrant model
  4647 ;;
  4648                           
  4649                           
  4650                           ;psect for function _isr
  4651  0436                     _isr:
  4652  0436                     i1l2531:
  4653                           
  4654                           ;main_brazo.c: 88:                 servo_2_1();
  4655  0436  1F0C               	btfss	12,6	;volatile
  4656  0437  2C39               	goto	u169_21
  4657  0438  2C3A               	goto	u169_20
  4658  0439                     u169_21:
  4659  0439  2D91               	goto	i1l2651
  4660  043A                     u169_20:
  4661  043A                     i1l2533:
  4662                           
  4663                           ;main_brazo.c: 90:             if ((pot3<=101) && (pot3>=51)){
  4664  043A  0C1F               	rrf	31,w	;volatile
  4665  043B  00A0               	movwf	??_isr
  4666  043C  0C20               	rrf	??_isr,w
  4667  043D  390F               	andlw	15
  4668  043E  3A00               	xorlw	0
  4669  043F  1D03               	skipz
  4670  0440  2C42               	goto	u170_21
  4671  0441  2C43               	goto	u170_20
  4672  0442                     u170_21:
  4673  0442  2C79               	goto	i1l2551
  4674  0443                     u170_20:
  4675  0443                     i1l2535:
  4676                           
  4677                           ;main_brazo.c: 91:                 servo_2_2();
  4678  0443  081F               	movf	31,w	;volatile
  4679  0444  39C3               	andlw	-61
  4680  0445  3804               	iorlw	4
  4681  0446  009F               	movwf	31	;volatile
  4682  0447                     i1l2537:
  4683                           
  4684                           ;main_brazo.c: 92:             }
  4685  0447  1906               	btfsc	6,2	;volatile
  4686  0448  2C4A               	goto	u171_21
  4687  0449  2C4B               	goto	u171_20
  4688  044A                     u171_21:
  4689  044A  2C57               	goto	i1l199
  4690  044B                     u171_20:
  4691  044B                     i1l2539:
  4692                           
  4693                           ;main_brazo.c: 93:             if ((pot3<=152) && (pot3>=102)){
  4694  044B  120A  158A  2354  120A  118A  	fcall	i1_motor_detenido
  4695  0450                     i1l2541:
  4696                           
  4697                           ;main_brazo.c: 94:                 servo_2_3();
  4698  0450  3003               	movlw	3
  4699  0451  1283               	bcf	3,5	;RP0=0, select bank0
  4700  0452  1303               	bcf	3,6	;RP1=0, select bank0
  4701  0453  00A0               	movwf	??_isr
  4702  0454  0820               	movf	??_isr,w
  4703  0455  00B6               	movwf	_estado_motor
  4704                           
  4705                           ;main_brazo.c: 95:             }
  4706  0456  2D87               	goto	i1l2647
  4707  0457                     i1l199:	
  4708                           ;main_brazo.c: 96:             if ((pot3<=203) && (pot3>=153)){
  4709                           
  4710  0457  1806               	btfsc	6,0	;volatile
  4711  0458  2C5A               	goto	u172_21
  4712  0459  2C5B               	goto	u172_20
  4713  045A                     u172_21:
  4714  045A  2C65               	goto	i1l201
  4715  045B                     u172_20:
  4716  045B                     i1l2543:
  4717                           
  4718                           ;main_brazo.c: 97:                 servo_2_4();
  4719  045B  120A  158A  2481  120A  118A  	fcall	i1_motor_1
  4720  0460                     i1l2545:
  4721                           
  4722                           ;main_brazo.c: 98:             }
  4723  0460  1283               	bcf	3,5	;RP0=0, select bank0
  4724  0461  1303               	bcf	3,6	;RP1=0, select bank0
  4725  0462  01B6               	clrf	_estado_motor
  4726  0463  0AB6               	incf	_estado_motor,f
  4727                           
  4728                           ;main_brazo.c: 99:             if (pot3>=204){
  4729  0464  2D87               	goto	i1l2647
  4730  0465                     i1l201:	
  4731                           ;main_brazo.c: 100:                 servo_2_5();
  4732                           
  4733  0465  1886               	btfsc	6,1	;volatile
  4734  0466  2C68               	goto	u173_21
  4735  0467  2C69               	goto	u173_20
  4736  0468                     u173_21:
  4737  0468  2C75               	goto	i1l203
  4738  0469                     u173_20:
  4739  0469                     i1l2547:
  4740                           
  4741                           ;main_brazo.c: 101:             }
  4742  0469  120A  158A  249A  120A  118A  	fcall	i1_motor_2
  4743  046E                     i1l2549:
  4744                           
  4745                           ;main_brazo.c: 102:         }
  4746  046E  3002               	movlw	2
  4747  046F  1283               	bcf	3,5	;RP0=0, select bank0
  4748  0470  1303               	bcf	3,6	;RP1=0, select bank0
  4749  0471  00A0               	movwf	??_isr
  4750  0472  0820               	movf	??_isr,w
  4751  0473  00B6               	movwf	_estado_motor
  4752                           
  4753                           ;main_brazo.c: 103: 
  4754  0474  2D87               	goto	i1l2647
  4755  0475                     i1l203:	
  4756                           ;main_brazo.c: 104:         else if (ADCON0bits.CHS == 3){
  4757                           
  4758                           
  4759                           ;main_brazo.c: 105:             ADCON0bits.CHS = 0;
  4760  0475  1009               	bcf	9,0	;volatile
  4761                           
  4762                           ;main_brazo.c: 106:             pot4 = ADRESH;
  4763  0476  1089               	bcf	9,1	;volatile
  4764                           
  4765                           ;main_brazo.c: 107:             if (pot4<=50){
  4766  0477  1109               	bcf	9,2	;volatile
  4767  0478  2D87               	goto	i1l2647
  4768  0479                     i1l2551:
  4769  0479  0C1F               	rrf	31,w	;volatile
  4770  047A  00A0               	movwf	??_isr
  4771  047B  0C20               	rrf	??_isr,w
  4772  047C  390F               	andlw	15
  4773  047D  3A01               	xorlw	1
  4774  047E  1D03               	skipz
  4775  047F  2C81               	goto	u174_21
  4776  0480  2C82               	goto	u174_20
  4777  0481                     u174_21:
  4778  0481  2CD4               	goto	i1l2583
  4779  0482                     u174_20:
  4780  0482                     i1l2553:
  4781                           
  4782                           ;main_brazo.c: 111:                 servo_3_2();
  4783  0482  081F               	movf	31,w	;volatile
  4784  0483  39C3               	andlw	-61
  4785  0484  3808               	iorlw	8
  4786  0485  009F               	movwf	31	;volatile
  4787  0486                     i1l2555:
  4788                           
  4789                           ;main_brazo.c: 112:             }
  4790  0486  081E               	movf	30,w	;volatile
  4791  0487  00A0               	movwf	??_isr
  4792  0488  0820               	movf	??_isr,w
  4793  0489  00FD               	movwf	_pot2
  4794  048A                     i1l2557:
  4795                           
  4796                           ;main_brazo.c: 113:             if ((pot4<=152) && (pot4>=102)){
  4797  048A  3033               	movlw	51
  4798  048B  027D               	subwf	_pot2,w
  4799  048C  1803               	skipnc
  4800  048D  2C8F               	goto	u175_21
  4801  048E  2C90               	goto	u175_20
  4802  048F                     u175_21:
  4803  048F  2C95               	goto	i1l2561
  4804  0490                     u175_20:
  4805  0490                     i1l2559:
  4806                           
  4807                           ;main_brazo.c: 114:                 servo_3_3();
  4808  0490  120A  158A  238C  120A  118A  	fcall	i1_servo_1_1
  4809  0495                     i1l2561:
  4810                           
  4811                           ;main_brazo.c: 116:             if ((pot4<=203) && (pot4>=153)){
  4812  0495  3066               	movlw	102
  4813  0496  027D               	subwf	_pot2,w
  4814  0497  1803               	skipnc
  4815  0498  2C9A               	goto	u176_21
  4816  0499  2C9B               	goto	u176_20
  4817  049A                     u176_21:
  4818  049A  2CA6               	goto	i1l2567
  4819  049B                     u176_20:
  4820  049B                     i1l2563:
  4821  049B  3033               	movlw	51
  4822  049C  027D               	subwf	_pot2,w
  4823  049D  1C03               	skipc
  4824  049E  2CA0               	goto	u177_21
  4825  049F  2CA1               	goto	u177_20
  4826  04A0                     u177_21:
  4827  04A0  2CA6               	goto	i1l2567
  4828  04A1                     u177_20:
  4829  04A1                     i1l2565:
  4830                           
  4831                           ;main_brazo.c: 117:                 servo_3_4();
  4832  04A1  120A  158A  23F4  120A  118A  	fcall	i1_servo_1_2
  4833  04A6                     i1l2567:
  4834                           
  4835                           ;main_brazo.c: 120:                servo_3_5();
  4836  04A6  3099               	movlw	153
  4837  04A7  027D               	subwf	_pot2,w
  4838  04A8  1803               	skipnc
  4839  04A9  2CAB               	goto	u178_21
  4840  04AA  2CAC               	goto	u178_20
  4841  04AB                     u178_21:
  4842  04AB  2CB7               	goto	i1l2573
  4843  04AC                     u178_20:
  4844  04AC                     i1l2569:
  4845  04AC  3066               	movlw	102
  4846  04AD  027D               	subwf	_pot2,w
  4847  04AE  1C03               	skipc
  4848  04AF  2CB1               	goto	u179_21
  4849  04B0  2CB2               	goto	u179_20
  4850  04B1                     u179_21:
  4851  04B1  2CB7               	goto	i1l2573
  4852  04B2                     u179_20:
  4853  04B2                     i1l2571:
  4854                           
  4855                           ;main_brazo.c: 121:             }
  4856  04B2  120A  158A  23B2  120A  118A  	fcall	i1_servo_1_3
  4857  04B7                     i1l2573:
  4858                           
  4859                           ;main_brazo.c: 123:         ADIF = 0;
  4860  04B7  30CC               	movlw	204
  4861  04B8  027D               	subwf	_pot2,w
  4862  04B9  1803               	skipnc
  4863  04BA  2CBC               	goto	u180_21
  4864  04BB  2CBD               	goto	u180_20
  4865  04BC                     u180_21:
  4866  04BC  2CC8               	goto	i1l2579
  4867  04BD                     u180_20:
  4868  04BD                     i1l2575:
  4869  04BD  3099               	movlw	153
  4870  04BE  027D               	subwf	_pot2,w
  4871  04BF  1C03               	skipc
  4872  04C0  2CC2               	goto	u181_21
  4873  04C1  2CC3               	goto	u181_20
  4874  04C2                     u181_21:
  4875  04C2  2CC8               	goto	i1l2579
  4876  04C3                     u181_20:
  4877  04C3                     i1l2577:
  4878                           
  4879                           ;main_brazo.c: 124:         _delay((unsigned long)((100)*(4000000/4000000.0)));
  4880  04C3  120A  158A  24B3  120A  118A  	fcall	i1_servo_1_4
  4881  04C8                     i1l2579:
  4882                           
  4883                           ;main_brazo.c: 126: 
  4884  04C8  30CC               	movlw	204
  4885  04C9  027D               	subwf	_pot2,w
  4886  04CA  1C03               	skipc
  4887  04CB  2CCD               	goto	u182_21
  4888  04CC  2CCE               	goto	u182_20
  4889  04CD                     u182_21:
  4890  04CD  2D87               	goto	i1l2647
  4891  04CE                     u182_20:
  4892  04CE                     i1l2581:
  4893                           
  4894                           ;main_brazo.c: 127:     if (RBIF == 1){
  4895  04CE  120A  158A  2439  120A  118A  	fcall	i1_servo_1_5
  4896  04D3  2D87               	goto	i1l2647
  4897  04D4                     i1l2583:
  4898  04D4  0C1F               	rrf	31,w	;volatile
  4899  04D5  00A0               	movwf	??_isr
  4900  04D6  0C20               	rrf	??_isr,w
  4901  04D7  390F               	andlw	15
  4902  04D8  3A02               	xorlw	2
  4903  04D9  1D03               	skipz
  4904  04DA  2CDC               	goto	u183_21
  4905  04DB  2CDD               	goto	u183_20
  4906  04DC                     u183_21:
  4907  04DC  2D2F               	goto	i1l2615
  4908  04DD                     u183_20:
  4909  04DD                     i1l2585:
  4910                           
  4911                           ;main_brazo.c: 131:             escribir_eeprom(pot2, 0x16);
  4912  04DD  081F               	movf	31,w	;volatile
  4913  04DE  39C3               	andlw	-61
  4914  04DF  380C               	iorlw	12
  4915  04E0  009F               	movwf	31	;volatile
  4916  04E1                     i1l2587:
  4917                           
  4918                           ;main_brazo.c: 132:             escribir_eeprom(pot3, 0x17);
  4919  04E1  081E               	movf	30,w	;volatile
  4920  04E2  00A0               	movwf	??_isr
  4921  04E3  0820               	movf	??_isr,w
  4922  04E4  00FC               	movwf	_pot3
  4923  04E5                     i1l2589:
  4924                           
  4925                           ;main_brazo.c: 133:             escribir_eeprom(pot4, 0x18);
  4926  04E5  3033               	movlw	51
  4927  04E6  027C               	subwf	_pot3,w
  4928  04E7  1803               	skipnc
  4929  04E8  2CEA               	goto	u184_21
  4930  04E9  2CEB               	goto	u184_20
  4931  04EA                     u184_21:
  4932  04EA  2CF0               	goto	i1l2593
  4933  04EB                     u184_20:
  4934  04EB                     i1l2591:
  4935                           
  4936                           ;main_brazo.c: 134:             escribir_eeprom(estado_motor, 0x19);
  4937  04EB  120A  158A  239F  120A  118A  	fcall	i1_servo_2_1
  4938  04F0                     i1l2593:
  4939                           
  4940                           ;main_brazo.c: 136:             RB5 = 0;
  4941  04F0  3066               	movlw	102
  4942  04F1  027C               	subwf	_pot3,w
  4943  04F2  1803               	skipnc
  4944  04F3  2CF5               	goto	u185_21
  4945  04F4  2CF6               	goto	u185_20
  4946  04F5                     u185_21:
  4947  04F5  2D01               	goto	i1l2599
  4948  04F6                     u185_20:
  4949  04F6                     i1l2595:
  4950  04F6  3033               	movlw	51
  4951  04F7  027C               	subwf	_pot3,w
  4952  04F8  1C03               	skipc
  4953  04F9  2CFB               	goto	u186_21
  4954  04FA  2CFC               	goto	u186_20
  4955  04FB                     u186_21:
  4956  04FB  2D01               	goto	i1l2599
  4957  04FC                     u186_20:
  4958  04FC                     i1l2597:
  4959                           
  4960                           ;main_brazo.c: 137:         }
  4961  04FC  120A  158A  240B  120A  118A  	fcall	i1_servo_2_2
  4962  0501                     i1l2599:
  4963                           
  4964                           ;main_brazo.c: 139: 
  4965  0501  3099               	movlw	153
  4966  0502  027C               	subwf	_pot3,w
  4967  0503  1803               	skipnc
  4968  0504  2D06               	goto	u187_21
  4969  0505  2D07               	goto	u187_20
  4970  0506                     u187_21:
  4971  0506  2D12               	goto	i1l2605
  4972  0507                     u187_20:
  4973  0507                     i1l2601:
  4974  0507  3066               	movlw	102
  4975  0508  027C               	subwf	_pot3,w
  4976  0509  1C03               	skipc
  4977  050A  2D0C               	goto	u188_21
  4978  050B  2D0D               	goto	u188_20
  4979  050C                     u188_21:
  4980  050C  2D12               	goto	i1l2605
  4981  050D                     u188_20:
  4982  050D                     i1l2603:
  4983                           
  4984                           ;main_brazo.c: 140: 
  4985  050D  120A  158A  23C8  120A  118A  	fcall	i1_servo_2_3
  4986  0512                     i1l2605:
  4987                           
  4988                           ;main_brazo.c: 142:             RB6 = 1;
  4989  0512  30CC               	movlw	204
  4990  0513  027C               	subwf	_pot3,w
  4991  0514  1803               	skipnc
  4992  0515  2D17               	goto	u189_21
  4993  0516  2D18               	goto	u189_20
  4994  0517                     u189_21:
  4995  0517  2D23               	goto	i1l2611
  4996  0518                     u189_20:
  4997  0518                     i1l2607:
  4998  0518  3099               	movlw	153
  4999  0519  027C               	subwf	_pot3,w
  5000  051A  1C03               	skipc
  5001  051B  2D1D               	goto	u190_21
  5002  051C  2D1E               	goto	u190_20
  5003  051D                     u190_21:
  5004  051D  2D23               	goto	i1l2611
  5005  051E                     u190_20:
  5006  051E                     i1l2609:
  5007                           
  5008                           ;main_brazo.c: 143:             pot2_nuevo = leer_eeprom(0x16);
  5009  051E  120A  158A  24CC  120A  118A  	fcall	i1_servo_2_4
  5010  0523                     i1l2611:
  5011                           
  5012                           ;main_brazo.c: 145:             pot4_nuevo = leer_eeprom(0x18);
  5013  0523  30CC               	movlw	204
  5014  0524  027C               	subwf	_pot3,w
  5015  0525  1C03               	skipc
  5016  0526  2D28               	goto	u191_21
  5017  0527  2D29               	goto	u191_20
  5018  0528                     u191_21:
  5019  0528  2D87               	goto	i1l2647
  5020  0529                     u191_20:
  5021  0529                     i1l2613:
  5022                           
  5023                           ;main_brazo.c: 146:             estado_motor_nuevo = leer_eeprom(0x19);
  5024  0529  120A  158A  2451  120A  118A  	fcall	i1_servo_2_5
  5025  052E  2D87               	goto	i1l2647
  5026  052F                     i1l2615:
  5027  052F  0C1F               	rrf	31,w	;volatile
  5028  0530  00A0               	movwf	??_isr
  5029  0531  0C20               	rrf	??_isr,w
  5030  0532  390F               	andlw	15
  5031  0533  3A03               	xorlw	3
  5032  0534  1D03               	skipz
  5033  0535  2D37               	goto	u192_21
  5034  0536  2D38               	goto	u192_20
  5035  0537                     u192_21:
  5036  0537  2D87               	goto	i1l2647
  5037  0538                     u192_20:
  5038  0538                     i1l2617:
  5039                           
  5040                           ;main_brazo.c: 151:             if ((pot2_nuevo<=101) && (pot2_nuevo>=51)){
  5041  0538  30C3               	movlw	-61
  5042  0539  059F               	andwf	31,f	;volatile
  5043  053A                     i1l2619:
  5044                           
  5045                           ;main_brazo.c: 152:                 servo_1_2();
  5046  053A  081E               	movf	30,w	;volatile
  5047  053B  00A0               	movwf	??_isr
  5048  053C  0820               	movf	??_isr,w
  5049  053D  00FB               	movwf	_pot4
  5050  053E                     i1l2621:
  5051                           
  5052                           ;main_brazo.c: 153:                 pot2 = 70;
  5053  053E  3033               	movlw	51
  5054  053F  027B               	subwf	_pot4,w
  5055  0540  1803               	skipnc
  5056  0541  2D43               	goto	u193_21
  5057  0542  2D44               	goto	u193_20
  5058  0543                     u193_21:
  5059  0543  2D49               	goto	i1l2625
  5060  0544                     u193_20:
  5061  0544                     i1l2623:
  5062                           
  5063                           ;main_brazo.c: 154:             }
  5064  0544  120A  118A  27EB  120A  118A  	fcall	i1_servo_3_1
  5065  0549                     i1l2625:
  5066                           
  5067                           ;main_brazo.c: 156:                 servo_1_3();
  5068  0549  3066               	movlw	102
  5069  054A  027B               	subwf	_pot4,w
  5070  054B  1803               	skipnc
  5071  054C  2D4E               	goto	u194_21
  5072  054D  2D4F               	goto	u194_20
  5073  054E                     u194_21:
  5074  054E  2D5A               	goto	i1l2631
  5075  054F                     u194_20:
  5076  054F                     i1l2627:
  5077  054F  3033               	movlw	51
  5078  0550  027B               	subwf	_pot4,w
  5079  0551  1C03               	skipc
  5080  0552  2D54               	goto	u195_21
  5081  0553  2D55               	goto	u195_20
  5082  0554                     u195_21:
  5083  0554  2D5A               	goto	i1l2631
  5084  0555                     u195_20:
  5085  0555                     i1l2629:
  5086                           
  5087                           ;main_brazo.c: 157:                 pot2 = 130;
  5088  0555  120A  158A  2422  120A  118A  	fcall	i1_servo_3_2
  5089  055A                     i1l2631:
  5090                           
  5091                           ;main_brazo.c: 159:             if ((pot2_nuevo<=203) && (pot2_nuevo>=153)){
  5092  055A  3099               	movlw	153
  5093  055B  027B               	subwf	_pot4,w
  5094  055C  1803               	skipnc
  5095  055D  2D5F               	goto	u196_21
  5096  055E  2D60               	goto	u196_20
  5097  055F                     u196_21:
  5098  055F  2D6B               	goto	i1l2637
  5099  0560                     u196_20:
  5100  0560                     i1l2633:
  5101  0560  3066               	movlw	102
  5102  0561  027B               	subwf	_pot4,w
  5103  0562  1C03               	skipc
  5104  0563  2D65               	goto	u197_21
  5105  0564  2D66               	goto	u197_20
  5106  0565                     u197_21:
  5107  0565  2D6B               	goto	i1l2637
  5108  0566                     u197_20:
  5109  0566                     i1l2635:
  5110                           
  5111                           ;main_brazo.c: 160:                 servo_1_4();
  5112  0566  120A  158A  23DE  120A  118A  	fcall	i1_servo_3_3
  5113  056B                     i1l2637:
  5114                           
  5115                           ;main_brazo.c: 162:             }
  5116  056B  30CC               	movlw	204
  5117  056C  027B               	subwf	_pot4,w
  5118  056D  1803               	skipnc
  5119  056E  2D70               	goto	u198_21
  5120  056F  2D71               	goto	u198_20
  5121  0570                     u198_21:
  5122  0570  2D7C               	goto	i1l2643
  5123  0571                     u198_20:
  5124  0571                     i1l2639:
  5125  0571  3099               	movlw	153
  5126  0572  027B               	subwf	_pot4,w
  5127  0573  1C03               	skipc
  5128  0574  2D76               	goto	u199_21
  5129  0575  2D77               	goto	u199_20
  5130  0576                     u199_21:
  5131  0576  2D7C               	goto	i1l2643
  5132  0577                     u199_20:
  5133  0577                     i1l2641:
  5134                           
  5135                           ;main_brazo.c: 163:             if (pot2_nuevo>=204){
  5136  0577  120A  158A  24E5  120A  118A  	fcall	i1_servo_3_4
  5137  057C                     i1l2643:
  5138                           
  5139                           ;main_brazo.c: 165:                 pot2 = 205;
  5140  057C  30CC               	movlw	204
  5141  057D  027B               	subwf	_pot4,w
  5142  057E  1C03               	skipc
  5143  057F  2D81               	goto	u200_21
  5144  0580  2D82               	goto	u200_20
  5145  0581                     u200_21:
  5146  0581  2D87               	goto	i1l2647
  5147  0582                     u200_20:
  5148  0582                     i1l2645:
  5149                           
  5150                           ;main_brazo.c: 166:             }
  5151  0582  120A  158A  2469  120A  118A  	fcall	i1_servo_3_5
  5152  0587                     i1l2647:
  5153                           
  5154                           ;main_brazo.c: 169:                 pot3 = 30;
  5155  0587  1283               	bcf	3,5	;RP0=0, select bank0
  5156  0588  1303               	bcf	3,6	;RP1=0, select bank0
  5157  0589  130C               	bcf	12,6	;volatile
  5158  058A                     i1l2649:
  5159                           
  5160                           ;main_brazo.c: 170:             }
  5161  058A  3020               	movlw	32
  5162  058B  1283               	bcf	3,5	;RP0=0, select bank0
  5163  058C  1303               	bcf	3,6	;RP1=0, select bank0
  5164  058D  00A0               	movwf	??_isr
  5165  058E                     u292_27:
  5166  058E  0BA0               	decfsz	??_isr,f
  5167  058F  2D8E               	goto	u292_27
  5168  0590  0000               	nop
  5169  0591                     i1l2651:
  5170                           
  5171                           ;main_brazo.c: 173:                 pot3 = 70;
  5172  0591  1C0B               	btfss	11,0	;volatile
  5173  0592  2D94               	goto	u201_21
  5174  0593  2D95               	goto	u201_20
  5175  0594                     u201_21:
  5176  0594  2F79               	goto	i1l247
  5177  0595                     u201_20:
  5178  0595                     i1l2653:
  5179                           
  5180                           ;main_brazo.c: 174:             }
  5181  0595  1283               	bcf	3,5	;RP0=0, select bank0
  5182  0596  1303               	bcf	3,6	;RP1=0, select bank0
  5183  0597  1986               	btfsc	6,3	;volatile
  5184  0598  2D9A               	goto	u202_21
  5185  0599  2D9B               	goto	u202_20
  5186  059A                     u202_21:
  5187  059A  2DDC               	goto	i1l2663
  5188  059B                     u202_20:
  5189  059B                     i1l2655:
  5190                           
  5191                           ;main_brazo.c: 175:             if ((pot3_nuevo<=152) && (pot3_nuevo>=102)){
  5192  059B  1306               	bcf	6,6	;volatile
  5193                           
  5194                           ;main_brazo.c: 176:                 servo_2_3();
  5195  059C  1686               	bsf	6,5	;volatile
  5196  059D                     i1l2657:
  5197                           
  5198                           ;main_brazo.c: 177:                 pot3 = 110;
  5199  059D  3016               	movlw	22
  5200  059E  00A0               	movwf	??_isr
  5201  059F  0820               	movf	??_isr,w
  5202  05A0  00F0               	movwf	escribir_eeprom@address
  5203  05A1  087D               	movf	_pot2,w
  5204  05A2  120A  158A  2671  120A  118A  	fcall	_escribir_eeprom
  5205                           
  5206                           ;main_brazo.c: 178:             }
  5207  05A7  3017               	movlw	23
  5208  05A8  1283               	bcf	3,5	;RP0=0, select bank0
  5209  05A9  1303               	bcf	3,6	;RP1=0, select bank0
  5210  05AA  00A0               	movwf	??_isr
  5211  05AB  0820               	movf	??_isr,w
  5212  05AC  00F0               	movwf	escribir_eeprom@address
  5213  05AD  087C               	movf	_pot3,w
  5214  05AE  120A  158A  2671  120A  118A  	fcall	_escribir_eeprom
  5215                           
  5216                           ;main_brazo.c: 179:             if ((pot3_nuevo<=203) && (pot3_nuevo>=153)){
  5217  05B3  3018               	movlw	24
  5218  05B4  1283               	bcf	3,5	;RP0=0, select bank0
  5219  05B5  1303               	bcf	3,6	;RP1=0, select bank0
  5220  05B6  00A0               	movwf	??_isr
  5221  05B7  0820               	movf	??_isr,w
  5222  05B8  00F0               	movwf	escribir_eeprom@address
  5223  05B9  087B               	movf	_pot4,w
  5224  05BA  120A  158A  2671  120A  118A  	fcall	_escribir_eeprom
  5225                           
  5226                           ;main_brazo.c: 180:                 servo_2_4();
  5227  05BF  3019               	movlw	25
  5228  05C0  1283               	bcf	3,5	;RP0=0, select bank0
  5229  05C1  1303               	bcf	3,6	;RP1=0, select bank0
  5230  05C2  00A0               	movwf	??_isr
  5231  05C3  0820               	movf	??_isr,w
  5232  05C4  00F0               	movwf	escribir_eeprom@address
  5233  05C5  0836               	movf	_estado_motor,w
  5234  05C6  120A  158A  2671  120A  118A  	fcall	_escribir_eeprom
  5235  05CB                     i1l2659:
  5236                           
  5237                           ;main_brazo.c: 181:                 pot3 = 170;
  5238  05CB  3003               	movlw	3
  5239  05CC  1283               	bcf	3,5	;RP0=0, select bank0
  5240  05CD  1303               	bcf	3,6	;RP1=0, select bank0
  5241  05CE  00A2               	movwf	??_isr+2
  5242  05CF  308A               	movlw	138
  5243  05D0  00A1               	movwf	??_isr+1
  5244  05D1  3055               	movlw	85
  5245  05D2  00A0               	movwf	??_isr
  5246  05D3                     u293_27:
  5247  05D3  0BA0               	decfsz	??_isr,f
  5248  05D4  2DD3               	goto	u293_27
  5249  05D5  0BA1               	decfsz	??_isr+1,f
  5250  05D6  2DD3               	goto	u293_27
  5251  05D7  0BA2               	decfsz	??_isr+2,f
  5252  05D8  2DD3               	goto	u293_27
  5253  05D9                     i1l2661:
  5254                           
  5255                           ;main_brazo.c: 182:             }
  5256  05D9  1283               	bcf	3,5	;RP0=0, select bank0
  5257  05DA  1303               	bcf	3,6	;RP1=0, select bank0
  5258  05DB  1286               	bcf	6,5	;volatile
  5259  05DC                     i1l2663:
  5260                           
  5261                           ;main_brazo.c: 184:                 servo_2_5();
  5262  05DC  1A06               	btfsc	6,4	;volatile
  5263  05DD  2DDF               	goto	u203_21
  5264  05DE  2DE0               	goto	u203_20
  5265  05DF                     u203_21:
  5266  05DF  2F78               	goto	i1l2793
  5267  05E0                     u203_20:
  5268  05E0                     i1l2665:
  5269                           
  5270                           ;main_brazo.c: 187:             if (pot4_nuevo<=50){
  5271  05E0  1286               	bcf	6,5	;volatile
  5272                           
  5273                           ;main_brazo.c: 188:                 servo_3_1();
  5274  05E1  1706               	bsf	6,6	;volatile
  5275  05E2                     i1l2667:
  5276                           
  5277                           ;main_brazo.c: 189:                 pot4 = 30;
  5278  05E2  3016               	movlw	22
  5279  05E3  120A  158A  236A  120A  118A  	fcall	_leer_eeprom
  5280  05E8  1283               	bcf	3,5	;RP0=0, select bank0
  5281  05E9  1303               	bcf	3,6	;RP1=0, select bank0
  5282  05EA  00A0               	movwf	??_isr
  5283  05EB  0820               	movf	??_isr,w
  5284  05EC  00B9               	movwf	_pot2_nuevo
  5285                           
  5286                           ;main_brazo.c: 190:             }
  5287  05ED  3017               	movlw	23
  5288  05EE  120A  158A  236A  120A  118A  	fcall	_leer_eeprom
  5289  05F3  1283               	bcf	3,5	;RP0=0, select bank0
  5290  05F4  1303               	bcf	3,6	;RP1=0, select bank0
  5291  05F5  00A0               	movwf	??_isr
  5292  05F6  0820               	movf	??_isr,w
  5293  05F7  00B8               	movwf	_pot3_nuevo
  5294                           
  5295                           ;main_brazo.c: 191:             if ((pot4_nuevo<=101) && (pot4_nuevo>=51)){
  5296  05F8  3018               	movlw	24
  5297  05F9  120A  158A  236A  120A  118A  	fcall	_leer_eeprom
  5298  05FE  1283               	bcf	3,5	;RP0=0, select bank0
  5299  05FF  1303               	bcf	3,6	;RP1=0, select bank0
  5300  0600  00A0               	movwf	??_isr
  5301  0601  0820               	movf	??_isr,w
  5302  0602  00B7               	movwf	_pot4_nuevo
  5303                           
  5304                           ;main_brazo.c: 192:                 servo_3_2();
  5305  0603  3019               	movlw	25
  5306  0604  120A  158A  236A  120A  118A  	fcall	_leer_eeprom
  5307  0609  1283               	bcf	3,5	;RP0=0, select bank0
  5308  060A  1303               	bcf	3,6	;RP1=0, select bank0
  5309  060B  00A0               	movwf	??_isr
  5310  060C  0820               	movf	??_isr,w
  5311  060D  00B5               	movwf	_estado_motor_nuevo
  5312  060E                     i1l2669:
  5313                           
  5314                           ;main_brazo.c: 193:                 pot4 = 70;
  5315  060E  3033               	movlw	51
  5316  060F  0239               	subwf	_pot2_nuevo,w
  5317  0610  1803               	skipnc
  5318  0611  2E13               	goto	u204_21
  5319  0612  2E14               	goto	u204_20
  5320  0613                     u204_21:
  5321  0613  2E1F               	goto	i1l2675
  5322  0614                     u204_20:
  5323  0614                     i1l2671:
  5324                           
  5325                           ;main_brazo.c: 194:             }
  5326  0614  120A  158A  238C  120A  118A  	fcall	i1_servo_1_1
  5327  0619                     i1l2673:
  5328                           
  5329                           ;main_brazo.c: 195:             if ((pot4_nuevo<=152) && (pot4_nuevo>=102)){
  5330  0619  301E               	movlw	30
  5331  061A  1283               	bcf	3,5	;RP0=0, select bank0
  5332  061B  1303               	bcf	3,6	;RP1=0, select bank0
  5333  061C  00A0               	movwf	??_isr
  5334  061D  0820               	movf	??_isr,w
  5335  061E  00FD               	movwf	_pot2
  5336  061F                     i1l2675:
  5337                           
  5338                           ;main_brazo.c: 197:                 pot4 = 130;
  5339  061F  3066               	movlw	102
  5340  0620  0239               	subwf	_pot2_nuevo,w
  5341  0621  1803               	skipnc
  5342  0622  2E24               	goto	u205_21
  5343  0623  2E25               	goto	u205_20
  5344  0624                     u205_21:
  5345  0624  2E36               	goto	i1l2683
  5346  0625                     u205_20:
  5347  0625                     i1l2677:
  5348  0625  3033               	movlw	51
  5349  0626  0239               	subwf	_pot2_nuevo,w
  5350  0627  1C03               	skipc
  5351  0628  2E2A               	goto	u206_21
  5352  0629  2E2B               	goto	u206_20
  5353  062A                     u206_21:
  5354  062A  2E36               	goto	i1l2683
  5355  062B                     u206_20:
  5356  062B                     i1l2679:
  5357                           
  5358                           ;main_brazo.c: 198:             }
  5359  062B  120A  158A  23F4  120A  118A  	fcall	i1_servo_1_2
  5360  0630                     i1l2681:
  5361                           
  5362                           ;main_brazo.c: 199:             if ((pot4_nuevo<=203) && (pot4_nuevo>=153)){
  5363  0630  3046               	movlw	70
  5364  0631  1283               	bcf	3,5	;RP0=0, select bank0
  5365  0632  1303               	bcf	3,6	;RP1=0, select bank0
  5366  0633  00A0               	movwf	??_isr
  5367  0634  0820               	movf	??_isr,w
  5368  0635  00FD               	movwf	_pot2
  5369  0636                     i1l2683:
  5370                           
  5371                           ;main_brazo.c: 201:                 pot4 = 170;
  5372  0636  3099               	movlw	153
  5373  0637  0239               	subwf	_pot2_nuevo,w
  5374  0638  1803               	skipnc
  5375  0639  2E3B               	goto	u207_21
  5376  063A  2E3C               	goto	u207_20
  5377  063B                     u207_21:
  5378  063B  2E4D               	goto	i1l2691
  5379  063C                     u207_20:
  5380  063C                     i1l2685:
  5381  063C  3066               	movlw	102
  5382  063D  0239               	subwf	_pot2_nuevo,w
  5383  063E  1C03               	skipc
  5384  063F  2E41               	goto	u208_21
  5385  0640  2E42               	goto	u208_20
  5386  0641                     u208_21:
  5387  0641  2E4D               	goto	i1l2691
  5388  0642                     u208_20:
  5389  0642                     i1l2687:
  5390                           
  5391                           ;main_brazo.c: 202:             }
  5392  0642  120A  158A  23B2  120A  118A  	fcall	i1_servo_1_3
  5393  0647                     i1l2689:
  5394                           
  5395                           ;main_brazo.c: 203:             if (pot4_nuevo>=204){
  5396  0647  3082               	movlw	130
  5397  0648  1283               	bcf	3,5	;RP0=0, select bank0
  5398  0649  1303               	bcf	3,6	;RP1=0, select bank0
  5399  064A  00A0               	movwf	??_isr
  5400  064B  0820               	movf	??_isr,w
  5401  064C  00FD               	movwf	_pot2
  5402  064D                     i1l2691:
  5403                           
  5404                           ;main_brazo.c: 205:                pot4 = 205;
  5405  064D  30CC               	movlw	204
  5406  064E  0239               	subwf	_pot2_nuevo,w
  5407  064F  1803               	skipnc
  5408  0650  2E52               	goto	u209_21
  5409  0651  2E53               	goto	u209_20
  5410  0652                     u209_21:
  5411  0652  2E64               	goto	i1l2699
  5412  0653                     u209_20:
  5413  0653                     i1l2693:
  5414  0653  3099               	movlw	153
  5415  0654  0239               	subwf	_pot2_nuevo,w
  5416  0655  1C03               	skipc
  5417  0656  2E58               	goto	u210_21
  5418  0657  2E59               	goto	u210_20
  5419  0658                     u210_21:
  5420  0658  2E64               	goto	i1l2699
  5421  0659                     u210_20:
  5422  0659                     i1l2695:
  5423                           
  5424                           ;main_brazo.c: 206:             }
  5425  0659  120A  158A  24B3  120A  118A  	fcall	i1_servo_1_4
  5426  065E                     i1l2697:
  5427                           
  5428                           ;main_brazo.c: 207:             if (estado_motor_nuevo == 0b11){
  5429  065E  30AA               	movlw	170
  5430  065F  1283               	bcf	3,5	;RP0=0, select bank0
  5431  0660  1303               	bcf	3,6	;RP1=0, select bank0
  5432  0661  00A0               	movwf	??_isr
  5433  0662  0820               	movf	??_isr,w
  5434  0663  00FD               	movwf	_pot2
  5435  0664                     i1l2699:
  5436                           
  5437                           ;main_brazo.c: 209: 
  5438  0664  30CC               	movlw	204
  5439  0665  0239               	subwf	_pot2_nuevo,w
  5440  0666  1C03               	skipc
  5441  0667  2E69               	goto	u211_21
  5442  0668  2E6A               	goto	u211_20
  5443  0669                     u211_21:
  5444  0669  2E75               	goto	i1l2705
  5445  066A                     u211_20:
  5446  066A                     i1l2701:
  5447                           
  5448                           ;main_brazo.c: 210:             }
  5449  066A  120A  158A  2439  120A  118A  	fcall	i1_servo_1_5
  5450  066F                     i1l2703:
  5451                           
  5452                           ;main_brazo.c: 211:             if (estado_motor_nuevo == 0b01){
  5453  066F  30CD               	movlw	205
  5454  0670  1283               	bcf	3,5	;RP0=0, select bank0
  5455  0671  1303               	bcf	3,6	;RP1=0, select bank0
  5456  0672  00A0               	movwf	??_isr
  5457  0673  0820               	movf	??_isr,w
  5458  0674  00FD               	movwf	_pot2
  5459  0675                     i1l2705:
  5460                           
  5461                           ;main_brazo.c: 213: 
  5462  0675  3033               	movlw	51
  5463  0676  0238               	subwf	_pot3_nuevo,w
  5464  0677  1803               	skipnc
  5465  0678  2E7A               	goto	u212_21
  5466  0679  2E7B               	goto	u212_20
  5467  067A                     u212_21:
  5468  067A  2E86               	goto	i1l2711
  5469  067B                     u212_20:
  5470  067B                     i1l2707:
  5471                           
  5472                           ;main_brazo.c: 214:             }
  5473  067B  120A  158A  239F  120A  118A  	fcall	i1_servo_2_1
  5474  0680                     i1l2709:
  5475                           
  5476                           ;main_brazo.c: 215:             if (estado_motor_nuevo == 0b10){
  5477  0680  301E               	movlw	30
  5478  0681  1283               	bcf	3,5	;RP0=0, select bank0
  5479  0682  1303               	bcf	3,6	;RP1=0, select bank0
  5480  0683  00A0               	movwf	??_isr
  5481  0684  0820               	movf	??_isr,w
  5482  0685  00FC               	movwf	_pot3
  5483  0686                     i1l2711:
  5484                           
  5485                           ;main_brazo.c: 217: 
  5486  0686  3066               	movlw	102
  5487  0687  0238               	subwf	_pot3_nuevo,w
  5488  0688  1803               	skipnc
  5489  0689  2E8B               	goto	u213_21
  5490  068A  2E8C               	goto	u213_20
  5491  068B                     u213_21:
  5492  068B  2E9D               	goto	i1l2719
  5493  068C                     u213_20:
  5494  068C                     i1l2713:
  5495  068C  3033               	movlw	51
  5496  068D  0238               	subwf	_pot3_nuevo,w
  5497  068E  1C03               	skipc
  5498  068F  2E91               	goto	u214_21
  5499  0690  2E92               	goto	u214_20
  5500  0691                     u214_21:
  5501  0691  2E9D               	goto	i1l2719
  5502  0692                     u214_20:
  5503  0692                     i1l2715:
  5504                           
  5505                           ;main_brazo.c: 218:             }
  5506  0692  120A  158A  240B  120A  118A  	fcall	i1_servo_2_2
  5507  0697                     i1l2717:
  5508                           
  5509                           ;main_brazo.c: 219:         _delay((unsigned long)((2000)*(4000000/4000.0)));
  5510  0697  3046               	movlw	70
  5511  0698  1283               	bcf	3,5	;RP0=0, select bank0
  5512  0699  1303               	bcf	3,6	;RP1=0, select bank0
  5513  069A  00A0               	movwf	??_isr
  5514  069B  0820               	movf	??_isr,w
  5515  069C  00FC               	movwf	_pot3
  5516  069D                     i1l2719:
  5517                           
  5518                           ;main_brazo.c: 221:         RB6 = 0;
  5519  069D  3099               	movlw	153
  5520  069E  0238               	subwf	_pot3_nuevo,w
  5521  069F  1803               	skipnc
  5522  06A0  2EA2               	goto	u215_21
  5523  06A1  2EA3               	goto	u215_20
  5524  06A2                     u215_21:
  5525  06A2  2EB4               	goto	i1l2727
  5526  06A3                     u215_20:
  5527  06A3                     i1l2721:
  5528  06A3  3066               	movlw	102
  5529  06A4  0238               	subwf	_pot3_nuevo,w
  5530  06A5  1C03               	skipc
  5531  06A6  2EA8               	goto	u216_21
  5532  06A7  2EA9               	goto	u216_20
  5533  06A8                     u216_21:
  5534  06A8  2EB4               	goto	i1l2727
  5535  06A9                     u216_20:
  5536  06A9                     i1l2723:
  5537                           
  5538                           ;main_brazo.c: 222:         }
  5539  06A9  120A  158A  23C8  120A  118A  	fcall	i1_servo_2_3
  5540  06AE                     i1l2725:
  5541                           
  5542                           ;main_brazo.c: 223:         RBIF = 0;
  5543  06AE  306E               	movlw	110
  5544  06AF  1283               	bcf	3,5	;RP0=0, select bank0
  5545  06B0  1303               	bcf	3,6	;RP1=0, select bank0
  5546  06B1  00A0               	movwf	??_isr
  5547  06B2  0820               	movf	??_isr,w
  5548  06B3  00FC               	movwf	_pot3
  5549  06B4                     i1l2727:
  5550                           
  5551                           ;main_brazo.c: 225: 
  5552  06B4  30CC               	movlw	204
  5553  06B5  0238               	subwf	_pot3_nuevo,w
  5554  06B6  1803               	skipnc
  5555  06B7  2EB9               	goto	u217_21
  5556  06B8  2EBA               	goto	u217_20
  5557  06B9                     u217_21:
  5558  06B9  2ECB               	goto	i1l2735
  5559  06BA                     u217_20:
  5560  06BA                     i1l2729:
  5561  06BA  3099               	movlw	153
  5562  06BB  0238               	subwf	_pot3_nuevo,w
  5563  06BC  1C03               	skipc
  5564  06BD  2EBF               	goto	u218_21
  5565  06BE  2EC0               	goto	u218_20
  5566  06BF                     u218_21:
  5567  06BF  2ECB               	goto	i1l2735
  5568  06C0                     u218_20:
  5569  06C0                     i1l2731:
  5570                           
  5571                           ;main_brazo.c: 226: 
  5572  06C0  120A  158A  24CC  120A  118A  	fcall	i1_servo_2_4
  5573  06C5                     i1l2733:
  5574                           
  5575                           ;main_brazo.c: 227: 
  5576  06C5  30AA               	movlw	170
  5577  06C6  1283               	bcf	3,5	;RP0=0, select bank0
  5578  06C7  1303               	bcf	3,6	;RP1=0, select bank0
  5579  06C8  00A0               	movwf	??_isr
  5580  06C9  0820               	movf	??_isr,w
  5581  06CA  00FC               	movwf	_pot3
  5582  06CB                     i1l2735:
  5583                           
  5584                           ;main_brazo.c: 229: 
  5585  06CB  30CC               	movlw	204
  5586  06CC  0238               	subwf	_pot3_nuevo,w
  5587  06CD  1C03               	skipc
  5588  06CE  2ED0               	goto	u219_21
  5589  06CF  2ED1               	goto	u219_20
  5590  06D0                     u219_21:
  5591  06D0  2EDC               	goto	i1l2741
  5592  06D1                     u219_20:
  5593  06D1                     i1l2737:
  5594                           
  5595                           ;main_brazo.c: 230: }
  5596  06D1  120A  158A  2451  120A  118A  	fcall	i1_servo_2_5
  5597  06D6                     i1l2739:
  5598                           
  5599                           ;main_brazo.c: 231: 
  5600  06D6  30CD               	movlw	205
  5601  06D7  1283               	bcf	3,5	;RP0=0, select bank0
  5602  06D8  1303               	bcf	3,6	;RP1=0, select bank0
  5603  06D9  00A0               	movwf	??_isr
  5604  06DA  0820               	movf	??_isr,w
  5605  06DB  00FC               	movwf	_pot3
  5606  06DC                     i1l2741:
  5607                           
  5608                           ;main_brazo.c: 233: 
  5609  06DC  3033               	movlw	51
  5610  06DD  0237               	subwf	_pot4_nuevo,w
  5611  06DE  1803               	skipnc
  5612  06DF  2EE1               	goto	u220_21
  5613  06E0  2EE2               	goto	u220_20
  5614  06E1                     u220_21:
  5615  06E1  2EED               	goto	i1l2747
  5616  06E2                     u220_20:
  5617  06E2                     i1l2743:
  5618                           
  5619                           ;main_brazo.c: 234: void main(void){
  5620  06E2  120A  118A  27EB  120A  118A  	fcall	i1_servo_3_1
  5621  06E7                     i1l2745:
  5622                           
  5623                           ;main_brazo.c: 235:     setup();
  5624  06E7  301E               	movlw	30
  5625  06E8  1283               	bcf	3,5	;RP0=0, select bank0
  5626  06E9  1303               	bcf	3,6	;RP1=0, select bank0
  5627  06EA  00A0               	movwf	??_isr
  5628  06EB  0820               	movf	??_isr,w
  5629  06EC  00FB               	movwf	_pot4
  5630  06ED                     i1l2747:
  5631                           
  5632                           ;main_brazo.c: 237:     while(1){
  5633  06ED  3066               	movlw	102
  5634  06EE  0237               	subwf	_pot4_nuevo,w
  5635  06EF  1803               	skipnc
  5636  06F0  2EF2               	goto	u221_21
  5637  06F1  2EF3               	goto	u221_20
  5638  06F2                     u221_21:
  5639  06F2  2F04               	goto	i1l2755
  5640  06F3                     u221_20:
  5641  06F3                     i1l2749:
  5642  06F3  3033               	movlw	51
  5643  06F4  0237               	subwf	_pot4_nuevo,w
  5644  06F5  1C03               	skipc
  5645  06F6  2EF8               	goto	u222_21
  5646  06F7  2EF9               	goto	u222_20
  5647  06F8                     u222_21:
  5648  06F8  2F04               	goto	i1l2755
  5649  06F9                     u222_20:
  5650  06F9                     i1l2751:
  5651                           
  5652                           ;main_brazo.c: 238: 
  5653  06F9  120A  158A  2422  120A  118A  	fcall	i1_servo_3_2
  5654  06FE                     i1l2753:
  5655                           
  5656                           ;main_brazo.c: 239:         ADCON0bits.GO = 1;
  5657  06FE  3046               	movlw	70
  5658  06FF  1283               	bcf	3,5	;RP0=0, select bank0
  5659  0700  1303               	bcf	3,6	;RP1=0, select bank0
  5660  0701  00A0               	movwf	??_isr
  5661  0702  0820               	movf	??_isr,w
  5662  0703  00FB               	movwf	_pot4
  5663  0704                     i1l2755:
  5664                           
  5665                           ;main_brazo.c: 241:         }
  5666  0704  3099               	movlw	153
  5667  0705  0237               	subwf	_pot4_nuevo,w
  5668  0706  1803               	skipnc
  5669  0707  2F09               	goto	u223_21
  5670  0708  2F0A               	goto	u223_20
  5671  0709                     u223_21:
  5672  0709  2F1B               	goto	i1l2763
  5673  070A                     u223_20:
  5674  070A                     i1l2757:
  5675  070A  3066               	movlw	102
  5676  070B  0237               	subwf	_pot4_nuevo,w
  5677  070C  1C03               	skipc
  5678  070D  2F0F               	goto	u224_21
  5679  070E  2F10               	goto	u224_20
  5680  070F                     u224_21:
  5681  070F  2F1B               	goto	i1l2763
  5682  0710                     u224_20:
  5683  0710                     i1l2759:
  5684                           
  5685                           ;main_brazo.c: 242: 
  5686  0710  120A  158A  23DE  120A  118A  	fcall	i1_servo_3_3
  5687  0715                     i1l2761:
  5688                           
  5689                           ;main_brazo.c: 243: 
  5690  0715  3082               	movlw	130
  5691  0716  1283               	bcf	3,5	;RP0=0, select bank0
  5692  0717  1303               	bcf	3,6	;RP1=0, select bank0
  5693  0718  00A0               	movwf	??_isr
  5694  0719  0820               	movf	??_isr,w
  5695  071A  00FB               	movwf	_pot4
  5696  071B                     i1l2763:
  5697                           
  5698                           ;main_brazo.c: 245: 
  5699  071B  30CC               	movlw	204
  5700  071C  0237               	subwf	_pot4_nuevo,w
  5701  071D  1803               	skipnc
  5702  071E  2F20               	goto	u225_21
  5703  071F  2F21               	goto	u225_20
  5704  0720                     u225_21:
  5705  0720  2F32               	goto	i1l2771
  5706  0721                     u225_20:
  5707  0721                     i1l2765:
  5708  0721  3099               	movlw	153
  5709  0722  0237               	subwf	_pot4_nuevo,w
  5710  0723  1C03               	skipc
  5711  0724  2F26               	goto	u226_21
  5712  0725  2F27               	goto	u226_20
  5713  0726                     u226_21:
  5714  0726  2F32               	goto	i1l2771
  5715  0727                     u226_20:
  5716  0727                     i1l2767:
  5717                           
  5718                           ;main_brazo.c: 246: 
  5719  0727  120A  158A  24E5  120A  118A  	fcall	i1_servo_3_4
  5720  072C                     i1l2769:
  5721                           
  5722                           ;main_brazo.c: 247: 
  5723  072C  30AA               	movlw	170
  5724  072D  1283               	bcf	3,5	;RP0=0, select bank0
  5725  072E  1303               	bcf	3,6	;RP1=0, select bank0
  5726  072F  00A0               	movwf	??_isr
  5727  0730  0820               	movf	??_isr,w
  5728  0731  00FB               	movwf	_pot4
  5729  0732                     i1l2771:
  5730                           
  5731                           ;main_brazo.c: 249: 
  5732  0732  30CC               	movlw	204
  5733  0733  0237               	subwf	_pot4_nuevo,w
  5734  0734  1C03               	skipc
  5735  0735  2F37               	goto	u227_21
  5736  0736  2F38               	goto	u227_20
  5737  0737                     u227_21:
  5738  0737  2F43               	goto	i1l2777
  5739  0738                     u227_20:
  5740  0738                     i1l2773:
  5741                           
  5742                           ;main_brazo.c: 250: void escribir_eeprom(char data, char address){
  5743  0738  120A  158A  2469  120A  118A  	fcall	i1_servo_3_5
  5744  073D                     i1l2775:
  5745                           
  5746                           ;main_brazo.c: 251:     EEADR = address;
  5747  073D  30CD               	movlw	205
  5748  073E  1283               	bcf	3,5	;RP0=0, select bank0
  5749  073F  1303               	bcf	3,6	;RP1=0, select bank0
  5750  0740  00A0               	movwf	??_isr
  5751  0741  0820               	movf	??_isr,w
  5752  0742  00FB               	movwf	_pot4
  5753  0743                     i1l2777:
  5754                           
  5755                           ;main_brazo.c: 253: 
  5756  0743  3003               	movlw	3
  5757  0744  0635               	xorwf	_estado_motor_nuevo,w
  5758  0745  1D03               	btfss	3,2
  5759  0746  2F48               	goto	u228_21
  5760  0747  2F49               	goto	u228_20
  5761  0748                     u228_21:
  5762  0748  2F4E               	goto	i1l2781
  5763  0749                     u228_20:
  5764  0749                     i1l2779:
  5765                           
  5766                           ;main_brazo.c: 254:     EECON1bits.EEPGD = 0;
  5767  0749  120A  158A  2354  120A  118A  	fcall	i1_motor_detenido
  5768  074E                     i1l2781:
  5769                           
  5770                           ;main_brazo.c: 257:     INTCONbits.GIE = 0;
  5771  074E  1283               	bcf	3,5	;RP0=0, select bank0
  5772  074F  1303               	bcf	3,6	;RP1=0, select bank0
  5773  0750  0335               	decf	_estado_motor_nuevo,w
  5774  0751  1D03               	btfss	3,2
  5775  0752  2F54               	goto	u229_21
  5776  0753  2F55               	goto	u229_20
  5777  0754                     u229_21:
  5778  0754  2F5A               	goto	i1l2785
  5779  0755                     u229_20:
  5780  0755                     i1l2783:
  5781                           
  5782                           ;main_brazo.c: 258: 
  5783  0755  120A  158A  2481  120A  118A  	fcall	i1_motor_1
  5784  075A                     i1l2785:
  5785                           
  5786                           ;main_brazo.c: 261: 
  5787  075A  3002               	movlw	2
  5788  075B  1283               	bcf	3,5	;RP0=0, select bank0
  5789  075C  1303               	bcf	3,6	;RP1=0, select bank0
  5790  075D  0635               	xorwf	_estado_motor_nuevo,w
  5791  075E  1D03               	btfss	3,2
  5792  075F  2F61               	goto	u230_21
  5793  0760  2F62               	goto	u230_20
  5794  0761                     u230_21:
  5795  0761  2F67               	goto	i1l2789
  5796  0762                     u230_20:
  5797  0762                     i1l2787:
  5798                           
  5799                           ;main_brazo.c: 262:     EECON1bits.WR = 1;
  5800  0762  120A  158A  249A  120A  118A  	fcall	i1_motor_2
  5801  0767                     i1l2789:
  5802                           
  5803                           ;main_brazo.c: 265:     PIR2bits.EEIF = 0;
  5804  0767  300B               	movlw	11
  5805  0768  1283               	bcf	3,5	;RP0=0, select bank0
  5806  0769  1303               	bcf	3,6	;RP1=0, select bank0
  5807  076A  00A2               	movwf	??_isr+2
  5808  076B  3026               	movlw	38
  5809  076C  00A1               	movwf	??_isr+1
  5810  076D  305D               	movlw	93
  5811  076E  00A0               	movwf	??_isr
  5812  076F                     u294_27:
  5813  076F  0BA0               	decfsz	??_isr,f
  5814  0770  2F6F               	goto	u294_27
  5815  0771  0BA1               	decfsz	??_isr+1,f
  5816  0772  2F6F               	goto	u294_27
  5817  0773  0BA2               	decfsz	??_isr+2,f
  5818  0774  2F6F               	goto	u294_27
  5819  0775                     i1l2791:
  5820                           
  5821                           ;main_brazo.c: 267:     EECON1bits.WREN = 0;
  5822  0775  1283               	bcf	3,5	;RP0=0, select bank0
  5823  0776  1303               	bcf	3,6	;RP1=0, select bank0
  5824  0777  1306               	bcf	6,6	;volatile
  5825  0778                     i1l2793:
  5826                           
  5827                           ;main_brazo.c: 269:     return;
  5828  0778  100B               	bcf	11,0	;volatile
  5829  0779                     i1l247:
  5830  0779  1283               	bcf	3,5	;RP0=0, select bank0
  5831  077A  1303               	bcf	3,6	;RP1=0, select bank0
  5832  077B  0824               	movf	??_isr+4,w
  5833  077C  008A               	movwf	10
  5834  077D  0E23               	swapf	??_isr+3,w
  5835  077E  0083               	movwf	3
  5836  077F  0EFE               	swapf	btemp,f
  5837  0780  0E7E               	swapf	btemp,w
  5838  0781  0009               	retfie
  5839  0782                     __end_of_isr:
  5840                           
  5841                           	psect	intentry
  5842  0004                     __pintentry:	
  5843                           ;incstack = 0
  5844                           ; Regs used in _isr: [wreg+status,2+status,0+pclath+cstack]
  5845                           
  5846  0004                     interrupt_function:
  5847  007E                     saved_w	set	btemp
  5848  0004  00FE               	movwf	btemp
  5849  0005  0E03               	swapf	3,w
  5850  0006  1283               	bcf	3,5	;RP0=0, select bank0
  5851  0007  1303               	bcf	3,6	;RP1=0, select bank0
  5852  0008  00A3               	movwf	??_isr+3
  5853  0009  080A               	movf	10,w
  5854  000A  00A4               	movwf	??_isr+4
  5855  000B  120A  118A  2C36   	ljmp	_isr
  5856                           
  5857                           	psect	text25
  5858  0C69                     __ptext25:	
  5859 ;; *************** function i1_servo_3_5 *****************
  5860 ;; Defined at:
  5861 ;;		line 424 in file "main_brazo.c"
  5862 ;; Parameters:    Size  Location     Type
  5863 ;;		None
  5864 ;; Auto vars:     Size  Location     Type
  5865 ;;		None
  5866 ;; Return value:  Size  Location     Type
  5867 ;;                  1    wreg      void 
  5868 ;; Registers used:
  5869 ;;		wreg
  5870 ;; Tracked objects:
  5871 ;;		On entry : 0/0
  5872 ;;		On exit  : 0/0
  5873 ;;		Unchanged: 0/0
  5874 ;; Data sizes:     COMMON   BANK0   BANK1   BANK3   BANK2
  5875 ;;      Params:         0       0       0       0       0
  5876 ;;      Locals:         0       0       0       0       0
  5877 ;;      Temps:          2       0       0       0       0
  5878 ;;      Totals:         2       0       0       0       0
  5879 ;;Total ram usage:        2 bytes
  5880 ;; Hardware stack levels used:    1
  5881 ;; This function calls:
  5882 ;;		Nothing
  5883 ;; This function is called by:
  5884 ;;		_isr
  5885 ;; This function uses a non-reentrant model
  5886 ;;
  5887                           
  5888                           
  5889                           ;psect for function i1_servo_3_5
  5890  0C69                     i1_servo_3_5:
  5891  0C69                     i1l2509:	
  5892                           ;incstack = 0
  5893                           ; Regs used in i1_servo_3_5: [wreg]
  5894                           
  5895                           
  5896                           ;main_brazo.c: 425:         printf("\r b. Servo 2");
  5897  0C69  1283               	bcf	3,5	;RP0=0, select bank0
  5898  0C6A  1303               	bcf	3,6	;RP1=0, select bank0
  5899  0C6B  1508               	bsf	8,2	;volatile
  5900  0C6C                     i1l2511:
  5901                           
  5902                           ;main_brazo.c: 426:         _delay((unsigned long)((250)*(4000000/4000.0)));
  5903  0C6C  3003               	movlw	3
  5904  0C6D  00F1               	movwf	??i1_servo_3_5+1
  5905  0C6E  3097               	movlw	151
  5906  0C6F  00F0               	movwf	??i1_servo_3_5
  5907  0C70                     u295_27:
  5908  0C70  0BF0               	decfsz	??i1_servo_3_5,f
  5909  0C71  2C70               	goto	u295_27
  5910  0C72  0BF1               	decfsz	??i1_servo_3_5+1,f
  5911  0C73  2C70               	goto	u295_27
  5912  0C74  2C75               	nop2
  5913  0C75                     i1l2513:
  5914                           
  5915                           ;main_brazo.c: 427:         printf("\r c. Servo 3");
  5916  0C75  1283               	bcf	3,5	;RP0=0, select bank0
  5917  0C76  1303               	bcf	3,6	;RP1=0, select bank0
  5918  0C77  1108               	bcf	8,2	;volatile
  5919                           
  5920                           ;main_brazo.c: 428:         while (RCIF == 0);
  5921  0C78  3018               	movlw	24
  5922  0C79  00F1               	movwf	??i1_servo_3_5+1
  5923  0C7A  305F               	movlw	95
  5924  0C7B  00F0               	movwf	??i1_servo_3_5
  5925  0C7C                     u296_27:
  5926  0C7C  0BF0               	decfsz	??i1_servo_3_5,f
  5927  0C7D  2C7C               	goto	u296_27
  5928  0C7E  0BF1               	decfsz	??i1_servo_3_5+1,f
  5929  0C7F  2C7C               	goto	u296_27
  5930  0C80                     i1l309:
  5931  0C80  0008               	return
  5932  0C81                     __end_ofi1_servo_3_5:
  5933                           
  5934                           	psect	text26
  5935  0CE5                     __ptext26:	
  5936 ;; *************** function i1_servo_3_4 *****************
  5937 ;; Defined at:
  5938 ;;		line 417 in file "main_brazo.c"
  5939 ;; Parameters:    Size  Location     Type
  5940 ;;		None
  5941 ;; Auto vars:     Size  Location     Type
  5942 ;;		None
  5943 ;; Return value:  Size  Location     Type
  5944 ;;                  1    wreg      void 
  5945 ;; Registers used:
  5946 ;;		wreg
  5947 ;; Tracked objects:
  5948 ;;		On entry : 0/0
  5949 ;;		On exit  : 0/0
  5950 ;;		Unchanged: 0/0
  5951 ;; Data sizes:     COMMON   BANK0   BANK1   BANK3   BANK2
  5952 ;;      Params:         0       0       0       0       0
  5953 ;;      Locals:         0       0       0       0       0
  5954 ;;      Temps:          2       0       0       0       0
  5955 ;;      Totals:         2       0       0       0       0
  5956 ;;Total ram usage:        2 bytes
  5957 ;; Hardware stack levels used:    1
  5958 ;; This function calls:
  5959 ;;		Nothing
  5960 ;; This function is called by:
  5961 ;;		_isr
  5962 ;; This function uses a non-reentrant model
  5963 ;;
  5964                           
  5965                           
  5966                           ;psect for function i1_servo_3_4
  5967  0CE5                     i1_servo_3_4:
  5968  0CE5                     i1l2503:	
  5969                           ;incstack = 0
  5970                           ; Regs used in i1_servo_3_4: [wreg]
  5971                           
  5972                           
  5973                           ;main_brazo.c: 418:     while (RCIF == 0);
  5974  0CE5  1283               	bcf	3,5	;RP0=0, select bank0
  5975  0CE6  1303               	bcf	3,6	;RP1=0, select bank0
  5976  0CE7  1508               	bsf	8,2	;volatile
  5977  0CE8                     i1l2505:
  5978                           
  5979                           ;main_brazo.c: 419:     if (RCREG == '1'){
  5980  0CE8  30F9               	movlw	249
  5981  0CE9  00F0               	movwf	??i1_servo_3_4
  5982  0CEA                     u297_27:
  5983  0CEA  2CEB               	nop2
  5984  0CEB  2CEC               	nop2
  5985  0CEC  0BF0               	decfsz	??i1_servo_3_4,f
  5986  0CED  2CEA               	goto	u297_27
  5987  0CEE  2CEF               	nop2
  5988  0CEF  2CF0               	nop2
  5989  0CF0  2CF1               	nop2
  5990  0CF1                     i1l2507:
  5991                           
  5992                           ;main_brazo.c: 420:         _delay((unsigned long)((500)*(4000000/4000.0)));
  5993  0CF1  1283               	bcf	3,5	;RP0=0, select bank0
  5994  0CF2  1303               	bcf	3,6	;RP1=0, select bank0
  5995  0CF3  1108               	bcf	8,2	;volatile
  5996                           
  5997                           ;main_brazo.c: 421:         printf("\r ¿Cual de los servos desea mover?\r");
  5998  0CF4  3018               	movlw	24
  5999  0CF5  00F1               	movwf	??i1_servo_3_4+1
  6000  0CF6  30B2               	movlw	178
  6001  0CF7  00F0               	movwf	??i1_servo_3_4
  6002  0CF8                     u298_27:
  6003  0CF8  0BF0               	decfsz	??i1_servo_3_4,f
  6004  0CF9  2CF8               	goto	u298_27
  6005  0CFA  0BF1               	decfsz	??i1_servo_3_4+1,f
  6006  0CFB  2CF8               	goto	u298_27
  6007  0CFC  0000               	nop
  6008  0CFD                     i1l306:
  6009  0CFD  0008               	return
  6010  0CFE                     __end_ofi1_servo_3_4:
  6011                           
  6012                           	psect	text27
  6013  0BDE                     __ptext27:	
  6014 ;; *************** function i1_servo_3_3 *****************
  6015 ;; Defined at:
  6016 ;;		line 410 in file "main_brazo.c"
  6017 ;; Parameters:    Size  Location     Type
  6018 ;;		None
  6019 ;; Auto vars:     Size  Location     Type
  6020 ;;		None
  6021 ;; Return value:  Size  Location     Type
  6022 ;;                  1    wreg      void 
  6023 ;; Registers used:
  6024 ;;		wreg
  6025 ;; Tracked objects:
  6026 ;;		On entry : 0/0
  6027 ;;		On exit  : 0/0
  6028 ;;		Unchanged: 0/0
  6029 ;; Data sizes:     COMMON   BANK0   BANK1   BANK3   BANK2
  6030 ;;      Params:         0       0       0       0       0
  6031 ;;      Locals:         0       0       0       0       0
  6032 ;;      Temps:          2       0       0       0       0
  6033 ;;      Totals:         2       0       0       0       0
  6034 ;;Total ram usage:        2 bytes
  6035 ;; Hardware stack levels used:    1
  6036 ;; This function calls:
  6037 ;;		Nothing
  6038 ;; This function is called by:
  6039 ;;		_isr
  6040 ;; This function uses a non-reentrant model
  6041 ;;
  6042                           
  6043                           
  6044                           ;psect for function i1_servo_3_3
  6045  0BDE                     i1_servo_3_3:
  6046  0BDE                     i1l2497:	
  6047                           ;incstack = 0
  6048                           ; Regs used in i1_servo_3_3: [wreg]
  6049                           
  6050                           
  6051                           ;main_brazo.c: 411:     printf("\r Que accion desea ejecutar \r");
  6052  0BDE  1283               	bcf	3,5	;RP0=0, select bank0
  6053  0BDF  1303               	bcf	3,6	;RP1=0, select bank0
  6054  0BE0  1508               	bsf	8,2	;volatile
  6055  0BE1                     i1l2499:
  6056                           
  6057                           ;main_brazo.c: 412:     _delay((unsigned long)((250)*(4000000/4000.0)));
  6058  0BE1  30D6               	movlw	214
  6059  0BE2  00F0               	movwf	??i1_servo_3_3
  6060  0BE3                     u299_27:
  6061  0BE3  2BE4               	nop2
  6062  0BE4  2BE5               	nop2
  6063  0BE5  0BF0               	decfsz	??i1_servo_3_3,f
  6064  0BE6  2BE3               	goto	u299_27
  6065  0BE7  0000               	nop
  6066  0BE8                     i1l2501:
  6067                           
  6068                           ;main_brazo.c: 413:     printf("(1) Mover servos \r");
  6069  0BE8  1283               	bcf	3,5	;RP0=0, select bank0
  6070  0BE9  1303               	bcf	3,6	;RP1=0, select bank0
  6071  0BEA  1108               	bcf	8,2	;volatile
  6072                           
  6073                           ;main_brazo.c: 414:     _delay((unsigned long)((250)*(4000000/4000.0)));
  6074  0BEB  3019               	movlw	25
  6075  0BEC  00F1               	movwf	??i1_servo_3_3+1
  6076  0BED  3005               	movlw	5
  6077  0BEE  00F0               	movwf	??i1_servo_3_3
  6078  0BEF                     u300_27:
  6079  0BEF  0BF0               	decfsz	??i1_servo_3_3,f
  6080  0BF0  2BEF               	goto	u300_27
  6081  0BF1  0BF1               	decfsz	??i1_servo_3_3+1,f
  6082  0BF2  2BEF               	goto	u300_27
  6083  0BF3                     i1l303:
  6084  0BF3  0008               	return
  6085  0BF4                     __end_ofi1_servo_3_3:
  6086                           
  6087                           	psect	text28
  6088  0C22                     __ptext28:	
  6089 ;; *************** function i1_servo_3_2 *****************
  6090 ;; Defined at:
  6091 ;;		line 403 in file "main_brazo.c"
  6092 ;; Parameters:    Size  Location     Type
  6093 ;;		None
  6094 ;; Auto vars:     Size  Location     Type
  6095 ;;		None
  6096 ;; Return value:  Size  Location     Type
  6097 ;;                  1    wreg      void 
  6098 ;; Registers used:
  6099 ;;		wreg
  6100 ;; Tracked objects:
  6101 ;;		On entry : 0/0
  6102 ;;		On exit  : 0/0
  6103 ;;		Unchanged: 0/0
  6104 ;; Data sizes:     COMMON   BANK0   BANK1   BANK3   BANK2
  6105 ;;      Params:         0       0       0       0       0
  6106 ;;      Locals:         0       0       0       0       0
  6107 ;;      Temps:          2       0       0       0       0
  6108 ;;      Totals:         2       0       0       0       0
  6109 ;;Total ram usage:        2 bytes
  6110 ;; Hardware stack levels used:    1
  6111 ;; This function calls:
  6112 ;;		Nothing
  6113 ;; This function is called by:
  6114 ;;		_isr
  6115 ;; This function uses a non-reentrant model
  6116 ;;
  6117                           
  6118                           
  6119                           ;psect for function i1_servo_3_2
  6120  0C22                     i1_servo_3_2:
  6121  0C22                     i1l2491:	
  6122                           ;incstack = 0
  6123                           ; Regs used in i1_servo_3_2: [wreg]
  6124                           
  6125                           
  6126                           ;main_brazo.c: 404:     while(TXIF == 0);
  6127  0C22  1283               	bcf	3,5	;RP0=0, select bank0
  6128  0C23  1303               	bcf	3,6	;RP1=0, select bank0
  6129  0C24  1508               	bsf	8,2	;volatile
  6130  0C25                     i1l2493:
  6131                           
  6132                           ;main_brazo.c: 405:     TXREG = dato;
  6133  0C25  30F9               	movlw	249
  6134  0C26  00F0               	movwf	??i1_servo_3_2
  6135  0C27                     u301_27:
  6136  0C27  2C28               	nop2
  6137  0C28  0BF0               	decfsz	??i1_servo_3_2,f
  6138  0C29  2C27               	goto	u301_27
  6139  0C2A  2C2B               	nop2
  6140  0C2B  2C2C               	nop2
  6141  0C2C                     i1l2495:
  6142                           
  6143                           ;main_brazo.c: 406:     return;
  6144  0C2C  1283               	bcf	3,5	;RP0=0, select bank0
  6145  0C2D  1303               	bcf	3,6	;RP1=0, select bank0
  6146  0C2E  1108               	bcf	8,2	;volatile
  6147                           
  6148                           ;main_brazo.c: 407: }
  6149  0C2F  3019               	movlw	25
  6150  0C30  00F1               	movwf	??i1_servo_3_2+1
  6151  0C31  3058               	movlw	88
  6152  0C32  00F0               	movwf	??i1_servo_3_2
  6153  0C33                     u302_27:
  6154  0C33  0BF0               	decfsz	??i1_servo_3_2,f
  6155  0C34  2C33               	goto	u302_27
  6156  0C35  0BF1               	decfsz	??i1_servo_3_2+1,f
  6157  0C36  2C33               	goto	u302_27
  6158  0C37  0000               	nop
  6159  0C38                     i1l300:
  6160  0C38  0008               	return
  6161  0C39                     __end_ofi1_servo_3_2:
  6162                           
  6163                           	psect	text29
  6164  07EB                     __ptext29:	
  6165 ;; *************** function i1_servo_3_1 *****************
  6166 ;; Defined at:
  6167 ;;		line 396 in file "main_brazo.c"
  6168 ;; Parameters:    Size  Location     Type
  6169 ;;		None
  6170 ;; Auto vars:     Size  Location     Type
  6171 ;;		None
  6172 ;; Return value:  Size  Location     Type
  6173 ;;                  1    wreg      void 
  6174 ;; Registers used:
  6175 ;;		wreg
  6176 ;; Tracked objects:
  6177 ;;		On entry : 0/0
  6178 ;;		On exit  : 0/0
  6179 ;;		Unchanged: 0/0
  6180 ;; Data sizes:     COMMON   BANK0   BANK1   BANK3   BANK2
  6181 ;;      Params:         0       0       0       0       0
  6182 ;;      Locals:         0       0       0       0       0
  6183 ;;      Temps:          2       0       0       0       0
  6184 ;;      Totals:         2       0       0       0       0
  6185 ;;Total ram usage:        2 bytes
  6186 ;; Hardware stack levels used:    1
  6187 ;; This function calls:
  6188 ;;		Nothing
  6189 ;; This function is called by:
  6190 ;;		_isr
  6191 ;; This function uses a non-reentrant model
  6192 ;;
  6193                           
  6194                           
  6195                           ;psect for function i1_servo_3_1
  6196  07EB                     i1_servo_3_1:
  6197  07EB                     i1l2485:	
  6198                           ;incstack = 0
  6199                           ; Regs used in i1_servo_3_1: [wreg]
  6200                           
  6201                           
  6202                           ;main_brazo.c: 397: void motor_2(void){
  6203  07EB  1283               	bcf	3,5	;RP0=0, select bank0
  6204  07EC  1303               	bcf	3,6	;RP1=0, select bank0
  6205  07ED  1508               	bsf	8,2	;volatile
  6206  07EE                     i1l2487:
  6207                           
  6208                           ;main_brazo.c: 398:     CCPR1L = 0;
  6209  07EE  30E9               	movlw	233
  6210  07EF  00F0               	movwf	??i1_servo_3_1
  6211  07F0                     u303_27:
  6212  07F0  0BF0               	decfsz	??i1_servo_3_1,f
  6213  07F1  2FF0               	goto	u303_27
  6214  07F2                     i1l2489:
  6215                           
  6216                           ;main_brazo.c: 399:     CCPR2L = ADRESH/4;
  6217  07F2  1283               	bcf	3,5	;RP0=0, select bank0
  6218  07F3  1303               	bcf	3,6	;RP1=0, select bank0
  6219  07F4  1108               	bcf	8,2	;volatile
  6220                           
  6221                           ;main_brazo.c: 400:     RE1 = 1;
  6222  07F5  301A               	movlw	26
  6223  07F6  00F1               	movwf	??i1_servo_3_1+1
  6224  07F7  300F               	movlw	15
  6225  07F8  00F0               	movwf	??i1_servo_3_1
  6226  07F9                     u304_27:
  6227  07F9  0BF0               	decfsz	??i1_servo_3_1,f
  6228  07FA  2FF9               	goto	u304_27
  6229  07FB  0BF1               	decfsz	??i1_servo_3_1+1,f
  6230  07FC  2FF9               	goto	u304_27
  6231  07FD                     i1l297:
  6232  07FD  0008               	return
  6233  07FE                     __end_ofi1_servo_3_1:
  6234                           
  6235                           	psect	text30
  6236  0C51                     __ptext30:	
  6237 ;; *************** function i1_servo_2_5 *****************
  6238 ;; Defined at:
  6239 ;;		line 389 in file "main_brazo.c"
  6240 ;; Parameters:    Size  Location     Type
  6241 ;;		None
  6242 ;; Auto vars:     Size  Location     Type
  6243 ;;		None
  6244 ;; Return value:  Size  Location     Type
  6245 ;;                  1    wreg      void 
  6246 ;; Registers used:
  6247 ;;		wreg
  6248 ;; Tracked objects:
  6249 ;;		On entry : 0/0
  6250 ;;		On exit  : 0/0
  6251 ;;		Unchanged: 0/0
  6252 ;; Data sizes:     COMMON   BANK0   BANK1   BANK3   BANK2
  6253 ;;      Params:         0       0       0       0       0
  6254 ;;      Locals:         0       0       0       0       0
  6255 ;;      Temps:          2       0       0       0       0
  6256 ;;      Totals:         2       0       0       0       0
  6257 ;;Total ram usage:        2 bytes
  6258 ;; Hardware stack levels used:    1
  6259 ;; This function calls:
  6260 ;;		Nothing
  6261 ;; This function is called by:
  6262 ;;		_isr
  6263 ;; This function uses a non-reentrant model
  6264 ;;
  6265                           
  6266                           
  6267                           ;psect for function i1_servo_2_5
  6268  0C51                     i1_servo_2_5:
  6269  0C51                     i1l2479:	
  6270                           ;incstack = 0
  6271                           ; Regs used in i1_servo_2_5: [wreg]
  6272                           
  6273                           
  6274                           ;main_brazo.c: 390: 
  6275  0C51  1283               	bcf	3,5	;RP0=0, select bank0
  6276  0C52  1303               	bcf	3,6	;RP1=0, select bank0
  6277  0C53  1488               	bsf	8,1	;volatile
  6278  0C54                     i1l2481:
  6279                           
  6280                           ;main_brazo.c: 391: void motor_1(void){
  6281  0C54  3003               	movlw	3
  6282  0C55  00F1               	movwf	??i1_servo_2_5+1
  6283  0C56  3097               	movlw	151
  6284  0C57  00F0               	movwf	??i1_servo_2_5
  6285  0C58                     u305_27:
  6286  0C58  0BF0               	decfsz	??i1_servo_2_5,f
  6287  0C59  2C58               	goto	u305_27
  6288  0C5A  0BF1               	decfsz	??i1_servo_2_5+1,f
  6289  0C5B  2C58               	goto	u305_27
  6290  0C5C  2C5D               	nop2
  6291  0C5D                     i1l2483:
  6292                           
  6293                           ;main_brazo.c: 392:     CCPR1L = ADRESH/4;
  6294  0C5D  1283               	bcf	3,5	;RP0=0, select bank0
  6295  0C5E  1303               	bcf	3,6	;RP1=0, select bank0
  6296  0C5F  1088               	bcf	8,1	;volatile
  6297                           
  6298                           ;main_brazo.c: 393:     CCPR2L = 0;
  6299  0C60  3018               	movlw	24
  6300  0C61  00F1               	movwf	??i1_servo_2_5+1
  6301  0C62  305F               	movlw	95
  6302  0C63  00F0               	movwf	??i1_servo_2_5
  6303  0C64                     u306_27:
  6304  0C64  0BF0               	decfsz	??i1_servo_2_5,f
  6305  0C65  2C64               	goto	u306_27
  6306  0C66  0BF1               	decfsz	??i1_servo_2_5+1,f
  6307  0C67  2C64               	goto	u306_27
  6308  0C68                     i1l294:
  6309  0C68  0008               	return
  6310  0C69                     __end_ofi1_servo_2_5:
  6311                           
  6312                           	psect	text31
  6313  0CCC                     __ptext31:	
  6314 ;; *************** function i1_servo_2_4 *****************
  6315 ;; Defined at:
  6316 ;;		line 382 in file "main_brazo.c"
  6317 ;; Parameters:    Size  Location     Type
  6318 ;;		None
  6319 ;; Auto vars:     Size  Location     Type
  6320 ;;		None
  6321 ;; Return value:  Size  Location     Type
  6322 ;;                  1    wreg      void 
  6323 ;; Registers used:
  6324 ;;		wreg
  6325 ;; Tracked objects:
  6326 ;;		On entry : 0/0
  6327 ;;		On exit  : 0/0
  6328 ;;		Unchanged: 0/0
  6329 ;; Data sizes:     COMMON   BANK0   BANK1   BANK3   BANK2
  6330 ;;      Params:         0       0       0       0       0
  6331 ;;      Locals:         0       0       0       0       0
  6332 ;;      Temps:          2       0       0       0       0
  6333 ;;      Totals:         2       0       0       0       0
  6334 ;;Total ram usage:        2 bytes
  6335 ;; Hardware stack levels used:    1
  6336 ;; This function calls:
  6337 ;;		Nothing
  6338 ;; This function is called by:
  6339 ;;		_isr
  6340 ;; This function uses a non-reentrant model
  6341 ;;
  6342                           
  6343                           
  6344                           ;psect for function i1_servo_2_4
  6345  0CCC                     i1_servo_2_4:
  6346  0CCC                     i1l2473:	
  6347                           ;incstack = 0
  6348                           ; Regs used in i1_servo_2_4: [wreg]
  6349                           
  6350                           
  6351                           ;main_brazo.c: 383: }
  6352  0CCC  1283               	bcf	3,5	;RP0=0, select bank0
  6353  0CCD  1303               	bcf	3,6	;RP1=0, select bank0
  6354  0CCE  1488               	bsf	8,1	;volatile
  6355  0CCF                     i1l2475:
  6356                           
  6357                           ;main_brazo.c: 384: 
  6358  0CCF  30F9               	movlw	249
  6359  0CD0  00F0               	movwf	??i1_servo_2_4
  6360  0CD1                     u307_27:
  6361  0CD1  2CD2               	nop2
  6362  0CD2  2CD3               	nop2
  6363  0CD3  0BF0               	decfsz	??i1_servo_2_4,f
  6364  0CD4  2CD1               	goto	u307_27
  6365  0CD5  2CD6               	nop2
  6366  0CD6  2CD7               	nop2
  6367  0CD7  2CD8               	nop2
  6368  0CD8                     i1l2477:
  6369                           
  6370                           ;main_brazo.c: 385: void motor_detenido(void){
  6371  0CD8  1283               	bcf	3,5	;RP0=0, select bank0
  6372  0CD9  1303               	bcf	3,6	;RP1=0, select bank0
  6373  0CDA  1088               	bcf	8,1	;volatile
  6374                           
  6375                           ;main_brazo.c: 386:     CCPR1L = 0;
  6376  0CDB  3018               	movlw	24
  6377  0CDC  00F1               	movwf	??i1_servo_2_4+1
  6378  0CDD  30B2               	movlw	178
  6379  0CDE  00F0               	movwf	??i1_servo_2_4
  6380  0CDF                     u308_27:
  6381  0CDF  0BF0               	decfsz	??i1_servo_2_4,f
  6382  0CE0  2CDF               	goto	u308_27
  6383  0CE1  0BF1               	decfsz	??i1_servo_2_4+1,f
  6384  0CE2  2CDF               	goto	u308_27
  6385  0CE3  0000               	nop
  6386  0CE4                     i1l291:
  6387  0CE4  0008               	return
  6388  0CE5                     __end_ofi1_servo_2_4:
  6389                           
  6390                           	psect	text32
  6391  0BC8                     __ptext32:	
  6392 ;; *************** function i1_servo_2_3 *****************
  6393 ;; Defined at:
  6394 ;;		line 375 in file "main_brazo.c"
  6395 ;; Parameters:    Size  Location     Type
  6396 ;;		None
  6397 ;; Auto vars:     Size  Location     Type
  6398 ;;		None
  6399 ;; Return value:  Size  Location     Type
  6400 ;;                  1    wreg      void 
  6401 ;; Registers used:
  6402 ;;		wreg
  6403 ;; Tracked objects:
  6404 ;;		On entry : 0/0
  6405 ;;		On exit  : 0/0
  6406 ;;		Unchanged: 0/0
  6407 ;; Data sizes:     COMMON   BANK0   BANK1   BANK3   BANK2
  6408 ;;      Params:         0       0       0       0       0
  6409 ;;      Locals:         0       0       0       0       0
  6410 ;;      Temps:          2       0       0       0       0
  6411 ;;      Totals:         2       0       0       0       0
  6412 ;;Total ram usage:        2 bytes
  6413 ;; Hardware stack levels used:    1
  6414 ;; This function calls:
  6415 ;;		Nothing
  6416 ;; This function is called by:
  6417 ;;		_isr
  6418 ;; This function uses a non-reentrant model
  6419 ;;
  6420                           
  6421                           
  6422                           ;psect for function i1_servo_2_3
  6423  0BC8                     i1_servo_2_3:
  6424  0BC8                     i1l2467:	
  6425                           ;incstack = 0
  6426                           ; Regs used in i1_servo_2_3: [wreg]
  6427                           
  6428                           
  6429                           ;main_brazo.c: 376: }
  6430  0BC8  1283               	bcf	3,5	;RP0=0, select bank0
  6431  0BC9  1303               	bcf	3,6	;RP1=0, select bank0
  6432  0BCA  1488               	bsf	8,1	;volatile
  6433  0BCB                     i1l2469:
  6434                           
  6435                           ;main_brazo.c: 377: 
  6436  0BCB  30D6               	movlw	214
  6437  0BCC  00F0               	movwf	??i1_servo_2_3
  6438  0BCD                     u309_27:
  6439  0BCD  2BCE               	nop2
  6440  0BCE  2BCF               	nop2
  6441  0BCF  0BF0               	decfsz	??i1_servo_2_3,f
  6442  0BD0  2BCD               	goto	u309_27
  6443  0BD1  0000               	nop
  6444  0BD2                     i1l2471:
  6445                           
  6446                           ;main_brazo.c: 378: void servo_3_5(void){
  6447  0BD2  1283               	bcf	3,5	;RP0=0, select bank0
  6448  0BD3  1303               	bcf	3,6	;RP1=0, select bank0
  6449  0BD4  1088               	bcf	8,1	;volatile
  6450                           
  6451                           ;main_brazo.c: 379:     RD2 = 1;
  6452  0BD5  3019               	movlw	25
  6453  0BD6  00F1               	movwf	??i1_servo_2_3+1
  6454  0BD7  3005               	movlw	5
  6455  0BD8  00F0               	movwf	??i1_servo_2_3
  6456  0BD9                     u310_27:
  6457  0BD9  0BF0               	decfsz	??i1_servo_2_3,f
  6458  0BDA  2BD9               	goto	u310_27
  6459  0BDB  0BF1               	decfsz	??i1_servo_2_3+1,f
  6460  0BDC  2BD9               	goto	u310_27
  6461  0BDD                     i1l288:
  6462  0BDD  0008               	return
  6463  0BDE                     __end_ofi1_servo_2_3:
  6464                           
  6465                           	psect	text33
  6466  0C0B                     __ptext33:	
  6467 ;; *************** function i1_servo_2_2 *****************
  6468 ;; Defined at:
  6469 ;;		line 368 in file "main_brazo.c"
  6470 ;; Parameters:    Size  Location     Type
  6471 ;;		None
  6472 ;; Auto vars:     Size  Location     Type
  6473 ;;		None
  6474 ;; Return value:  Size  Location     Type
  6475 ;;                  1    wreg      void 
  6476 ;; Registers used:
  6477 ;;		wreg
  6478 ;; Tracked objects:
  6479 ;;		On entry : 0/0
  6480 ;;		On exit  : 0/0
  6481 ;;		Unchanged: 0/0
  6482 ;; Data sizes:     COMMON   BANK0   BANK1   BANK3   BANK2
  6483 ;;      Params:         0       0       0       0       0
  6484 ;;      Locals:         0       0       0       0       0
  6485 ;;      Temps:          2       0       0       0       0
  6486 ;;      Totals:         2       0       0       0       0
  6487 ;;Total ram usage:        2 bytes
  6488 ;; Hardware stack levels used:    1
  6489 ;; This function calls:
  6490 ;;		Nothing
  6491 ;; This function is called by:
  6492 ;;		_isr
  6493 ;; This function uses a non-reentrant model
  6494 ;;
  6495                           
  6496                           
  6497                           ;psect for function i1_servo_2_2
  6498  0C0B                     i1_servo_2_2:
  6499  0C0B                     i1l2461:	
  6500                           ;incstack = 0
  6501                           ; Regs used in i1_servo_2_2: [wreg]
  6502                           
  6503                           
  6504                           ;main_brazo.c: 369: }
  6505  0C0B  1283               	bcf	3,5	;RP0=0, select bank0
  6506  0C0C  1303               	bcf	3,6	;RP1=0, select bank0
  6507  0C0D  1488               	bsf	8,1	;volatile
  6508  0C0E                     i1l2463:
  6509                           
  6510                           ;main_brazo.c: 370: 
  6511  0C0E  30F9               	movlw	249
  6512  0C0F  00F0               	movwf	??i1_servo_2_2
  6513  0C10                     u311_27:
  6514  0C10  2C11               	nop2
  6515  0C11  0BF0               	decfsz	??i1_servo_2_2,f
  6516  0C12  2C10               	goto	u311_27
  6517  0C13  2C14               	nop2
  6518  0C14  2C15               	nop2
  6519  0C15                     i1l2465:
  6520                           
  6521                           ;main_brazo.c: 371: void servo_3_4(void){
  6522  0C15  1283               	bcf	3,5	;RP0=0, select bank0
  6523  0C16  1303               	bcf	3,6	;RP1=0, select bank0
  6524  0C17  1088               	bcf	8,1	;volatile
  6525                           
  6526                           ;main_brazo.c: 372:     RD2 = 1;
  6527  0C18  3019               	movlw	25
  6528  0C19  00F1               	movwf	??i1_servo_2_2+1
  6529  0C1A  3058               	movlw	88
  6530  0C1B  00F0               	movwf	??i1_servo_2_2
  6531  0C1C                     u312_27:
  6532  0C1C  0BF0               	decfsz	??i1_servo_2_2,f
  6533  0C1D  2C1C               	goto	u312_27
  6534  0C1E  0BF1               	decfsz	??i1_servo_2_2+1,f
  6535  0C1F  2C1C               	goto	u312_27
  6536  0C20  0000               	nop
  6537  0C21                     i1l285:
  6538  0C21  0008               	return
  6539  0C22                     __end_ofi1_servo_2_2:
  6540                           
  6541                           	psect	text34
  6542  0B9F                     __ptext34:	
  6543 ;; *************** function i1_servo_2_1 *****************
  6544 ;; Defined at:
  6545 ;;		line 361 in file "main_brazo.c"
  6546 ;; Parameters:    Size  Location     Type
  6547 ;;		None
  6548 ;; Auto vars:     Size  Location     Type
  6549 ;;		None
  6550 ;; Return value:  Size  Location     Type
  6551 ;;                  1    wreg      void 
  6552 ;; Registers used:
  6553 ;;		wreg
  6554 ;; Tracked objects:
  6555 ;;		On entry : 0/0
  6556 ;;		On exit  : 0/0
  6557 ;;		Unchanged: 0/0
  6558 ;; Data sizes:     COMMON   BANK0   BANK1   BANK3   BANK2
  6559 ;;      Params:         0       0       0       0       0
  6560 ;;      Locals:         0       0       0       0       0
  6561 ;;      Temps:          2       0       0       0       0
  6562 ;;      Totals:         2       0       0       0       0
  6563 ;;Total ram usage:        2 bytes
  6564 ;; Hardware stack levels used:    1
  6565 ;; This function calls:
  6566 ;;		Nothing
  6567 ;; This function is called by:
  6568 ;;		_isr
  6569 ;; This function uses a non-reentrant model
  6570 ;;
  6571                           
  6572                           
  6573                           ;psect for function i1_servo_2_1
  6574  0B9F                     i1_servo_2_1:
  6575  0B9F                     i1l2455:	
  6576                           ;incstack = 0
  6577                           ; Regs used in i1_servo_2_1: [wreg]
  6578                           
  6579                           
  6580                           ;main_brazo.c: 362: }
  6581  0B9F  1283               	bcf	3,5	;RP0=0, select bank0
  6582  0BA0  1303               	bcf	3,6	;RP1=0, select bank0
  6583  0BA1  1488               	bsf	8,1	;volatile
  6584  0BA2                     i1l2457:
  6585                           
  6586                           ;main_brazo.c: 363: 
  6587  0BA2  30E9               	movlw	233
  6588  0BA3  00F0               	movwf	??i1_servo_2_1
  6589  0BA4                     u313_27:
  6590  0BA4  0BF0               	decfsz	??i1_servo_2_1,f
  6591  0BA5  2BA4               	goto	u313_27
  6592  0BA6                     i1l2459:
  6593                           
  6594                           ;main_brazo.c: 364: void servo_3_3(void){
  6595  0BA6  1283               	bcf	3,5	;RP0=0, select bank0
  6596  0BA7  1303               	bcf	3,6	;RP1=0, select bank0
  6597  0BA8  1088               	bcf	8,1	;volatile
  6598                           
  6599                           ;main_brazo.c: 365:     RD2 = 1;
  6600  0BA9  301A               	movlw	26
  6601  0BAA  00F1               	movwf	??i1_servo_2_1+1
  6602  0BAB  300F               	movlw	15
  6603  0BAC  00F0               	movwf	??i1_servo_2_1
  6604  0BAD                     u314_27:
  6605  0BAD  0BF0               	decfsz	??i1_servo_2_1,f
  6606  0BAE  2BAD               	goto	u314_27
  6607  0BAF  0BF1               	decfsz	??i1_servo_2_1+1,f
  6608  0BB0  2BAD               	goto	u314_27
  6609  0BB1                     i1l282:
  6610  0BB1  0008               	return
  6611  0BB2                     __end_ofi1_servo_2_1:
  6612                           
  6613                           	psect	text35
  6614  0C39                     __ptext35:	
  6615 ;; *************** function i1_servo_1_5 *****************
  6616 ;; Defined at:
  6617 ;;		line 354 in file "main_brazo.c"
  6618 ;; Parameters:    Size  Location     Type
  6619 ;;		None
  6620 ;; Auto vars:     Size  Location     Type
  6621 ;;		None
  6622 ;; Return value:  Size  Location     Type
  6623 ;;                  1    wreg      void 
  6624 ;; Registers used:
  6625 ;;		wreg
  6626 ;; Tracked objects:
  6627 ;;		On entry : 0/0
  6628 ;;		On exit  : 0/0
  6629 ;;		Unchanged: 0/0
  6630 ;; Data sizes:     COMMON   BANK0   BANK1   BANK3   BANK2
  6631 ;;      Params:         0       0       0       0       0
  6632 ;;      Locals:         0       0       0       0       0
  6633 ;;      Temps:          2       0       0       0       0
  6634 ;;      Totals:         2       0       0       0       0
  6635 ;;Total ram usage:        2 bytes
  6636 ;; Hardware stack levels used:    1
  6637 ;; This function calls:
  6638 ;;		Nothing
  6639 ;; This function is called by:
  6640 ;;		_isr
  6641 ;; This function uses a non-reentrant model
  6642 ;;
  6643                           
  6644                           
  6645                           ;psect for function i1_servo_1_5
  6646  0C39                     i1_servo_1_5:
  6647  0C39                     i1l2449:	
  6648                           ;incstack = 0
  6649                           ; Regs used in i1_servo_1_5: [wreg]
  6650                           
  6651                           
  6652                           ;main_brazo.c: 355: }
  6653  0C39  1283               	bcf	3,5	;RP0=0, select bank0
  6654  0C3A  1303               	bcf	3,6	;RP1=0, select bank0
  6655  0C3B  1408               	bsf	8,0	;volatile
  6656  0C3C                     i1l2451:
  6657                           
  6658                           ;main_brazo.c: 356: 
  6659  0C3C  3003               	movlw	3
  6660  0C3D  00F1               	movwf	??i1_servo_1_5+1
  6661  0C3E  3097               	movlw	151
  6662  0C3F  00F0               	movwf	??i1_servo_1_5
  6663  0C40                     u315_27:
  6664  0C40  0BF0               	decfsz	??i1_servo_1_5,f
  6665  0C41  2C40               	goto	u315_27
  6666  0C42  0BF1               	decfsz	??i1_servo_1_5+1,f
  6667  0C43  2C40               	goto	u315_27
  6668  0C44  2C45               	nop2
  6669  0C45                     i1l2453:
  6670                           
  6671                           ;main_brazo.c: 357: void servo_3_2(void){
  6672  0C45  1283               	bcf	3,5	;RP0=0, select bank0
  6673  0C46  1303               	bcf	3,6	;RP1=0, select bank0
  6674  0C47  1008               	bcf	8,0	;volatile
  6675                           
  6676                           ;main_brazo.c: 358:     RD2 = 1;
  6677  0C48  3018               	movlw	24
  6678  0C49  00F1               	movwf	??i1_servo_1_5+1
  6679  0C4A  305F               	movlw	95
  6680  0C4B  00F0               	movwf	??i1_servo_1_5
  6681  0C4C                     u316_27:
  6682  0C4C  0BF0               	decfsz	??i1_servo_1_5,f
  6683  0C4D  2C4C               	goto	u316_27
  6684  0C4E  0BF1               	decfsz	??i1_servo_1_5+1,f
  6685  0C4F  2C4C               	goto	u316_27
  6686  0C50                     i1l279:
  6687  0C50  0008               	return
  6688  0C51                     __end_ofi1_servo_1_5:
  6689                           
  6690                           	psect	text36
  6691  0CB3                     __ptext36:	
  6692 ;; *************** function i1_servo_1_4 *****************
  6693 ;; Defined at:
  6694 ;;		line 347 in file "main_brazo.c"
  6695 ;; Parameters:    Size  Location     Type
  6696 ;;		None
  6697 ;; Auto vars:     Size  Location     Type
  6698 ;;		None
  6699 ;; Return value:  Size  Location     Type
  6700 ;;                  1    wreg      void 
  6701 ;; Registers used:
  6702 ;;		wreg
  6703 ;; Tracked objects:
  6704 ;;		On entry : 0/0
  6705 ;;		On exit  : 0/0
  6706 ;;		Unchanged: 0/0
  6707 ;; Data sizes:     COMMON   BANK0   BANK1   BANK3   BANK2
  6708 ;;      Params:         0       0       0       0       0
  6709 ;;      Locals:         0       0       0       0       0
  6710 ;;      Temps:          2       0       0       0       0
  6711 ;;      Totals:         2       0       0       0       0
  6712 ;;Total ram usage:        2 bytes
  6713 ;; Hardware stack levels used:    1
  6714 ;; This function calls:
  6715 ;;		Nothing
  6716 ;; This function is called by:
  6717 ;;		_isr
  6718 ;; This function uses a non-reentrant model
  6719 ;;
  6720                           
  6721                           
  6722                           ;psect for function i1_servo_1_4
  6723  0CB3                     i1_servo_1_4:
  6724  0CB3                     i1l2443:	
  6725                           ;incstack = 0
  6726                           ; Regs used in i1_servo_1_4: [wreg]
  6727                           
  6728                           
  6729                           ;main_brazo.c: 348: }
  6730  0CB3  1283               	bcf	3,5	;RP0=0, select bank0
  6731  0CB4  1303               	bcf	3,6	;RP1=0, select bank0
  6732  0CB5  1408               	bsf	8,0	;volatile
  6733  0CB6                     i1l2445:
  6734                           
  6735                           ;main_brazo.c: 349: 
  6736  0CB6  30F9               	movlw	249
  6737  0CB7  00F0               	movwf	??i1_servo_1_4
  6738  0CB8                     u317_27:
  6739  0CB8  2CB9               	nop2
  6740  0CB9  2CBA               	nop2
  6741  0CBA  0BF0               	decfsz	??i1_servo_1_4,f
  6742  0CBB  2CB8               	goto	u317_27
  6743  0CBC  2CBD               	nop2
  6744  0CBD  2CBE               	nop2
  6745  0CBE  2CBF               	nop2
  6746  0CBF                     i1l2447:
  6747                           
  6748                           ;main_brazo.c: 350: void servo_3_1(void){
  6749  0CBF  1283               	bcf	3,5	;RP0=0, select bank0
  6750  0CC0  1303               	bcf	3,6	;RP1=0, select bank0
  6751  0CC1  1008               	bcf	8,0	;volatile
  6752                           
  6753                           ;main_brazo.c: 351:     RD2 = 1;
  6754  0CC2  3018               	movlw	24
  6755  0CC3  00F1               	movwf	??i1_servo_1_4+1
  6756  0CC4  30B2               	movlw	178
  6757  0CC5  00F0               	movwf	??i1_servo_1_4
  6758  0CC6                     u318_27:
  6759  0CC6  0BF0               	decfsz	??i1_servo_1_4,f
  6760  0CC7  2CC6               	goto	u318_27
  6761  0CC8  0BF1               	decfsz	??i1_servo_1_4+1,f
  6762  0CC9  2CC6               	goto	u318_27
  6763  0CCA  0000               	nop
  6764  0CCB                     i1l276:
  6765  0CCB  0008               	return
  6766  0CCC                     __end_ofi1_servo_1_4:
  6767                           
  6768                           	psect	text37
  6769  0BB2                     __ptext37:	
  6770 ;; *************** function i1_servo_1_3 *****************
  6771 ;; Defined at:
  6772 ;;		line 340 in file "main_brazo.c"
  6773 ;; Parameters:    Size  Location     Type
  6774 ;;		None
  6775 ;; Auto vars:     Size  Location     Type
  6776 ;;		None
  6777 ;; Return value:  Size  Location     Type
  6778 ;;                  1    wreg      void 
  6779 ;; Registers used:
  6780 ;;		wreg
  6781 ;; Tracked objects:
  6782 ;;		On entry : 0/0
  6783 ;;		On exit  : 0/0
  6784 ;;		Unchanged: 0/0
  6785 ;; Data sizes:     COMMON   BANK0   BANK1   BANK3   BANK2
  6786 ;;      Params:         0       0       0       0       0
  6787 ;;      Locals:         0       0       0       0       0
  6788 ;;      Temps:          2       0       0       0       0
  6789 ;;      Totals:         2       0       0       0       0
  6790 ;;Total ram usage:        2 bytes
  6791 ;; Hardware stack levels used:    1
  6792 ;; This function calls:
  6793 ;;		Nothing
  6794 ;; This function is called by:
  6795 ;;		_isr
  6796 ;; This function uses a non-reentrant model
  6797 ;;
  6798                           
  6799                           
  6800                           ;psect for function i1_servo_1_3
  6801  0BB2                     i1_servo_1_3:
  6802  0BB2                     i1l2437:	
  6803                           ;incstack = 0
  6804                           ; Regs used in i1_servo_1_3: [wreg]
  6805                           
  6806                           
  6807                           ;main_brazo.c: 341: }
  6808  0BB2  1283               	bcf	3,5	;RP0=0, select bank0
  6809  0BB3  1303               	bcf	3,6	;RP1=0, select bank0
  6810  0BB4  1408               	bsf	8,0	;volatile
  6811  0BB5                     i1l2439:
  6812                           
  6813                           ;main_brazo.c: 342: 
  6814  0BB5  30D6               	movlw	214
  6815  0BB6  00F0               	movwf	??i1_servo_1_3
  6816  0BB7                     u319_27:
  6817  0BB7  2BB8               	nop2
  6818  0BB8  2BB9               	nop2
  6819  0BB9  0BF0               	decfsz	??i1_servo_1_3,f
  6820  0BBA  2BB7               	goto	u319_27
  6821  0BBB  0000               	nop
  6822  0BBC                     i1l2441:
  6823                           
  6824                           ;main_brazo.c: 343: void servo_2_5(void){
  6825  0BBC  1283               	bcf	3,5	;RP0=0, select bank0
  6826  0BBD  1303               	bcf	3,6	;RP1=0, select bank0
  6827  0BBE  1008               	bcf	8,0	;volatile
  6828                           
  6829                           ;main_brazo.c: 344:     RD1 = 1;
  6830  0BBF  3019               	movlw	25
  6831  0BC0  00F1               	movwf	??i1_servo_1_3+1
  6832  0BC1  3005               	movlw	5
  6833  0BC2  00F0               	movwf	??i1_servo_1_3
  6834  0BC3                     u320_27:
  6835  0BC3  0BF0               	decfsz	??i1_servo_1_3,f
  6836  0BC4  2BC3               	goto	u320_27
  6837  0BC5  0BF1               	decfsz	??i1_servo_1_3+1,f
  6838  0BC6  2BC3               	goto	u320_27
  6839  0BC7                     i1l273:
  6840  0BC7  0008               	return
  6841  0BC8                     __end_ofi1_servo_1_3:
  6842                           
  6843                           	psect	text38
  6844  0BF4                     __ptext38:	
  6845 ;; *************** function i1_servo_1_2 *****************
  6846 ;; Defined at:
  6847 ;;		line 333 in file "main_brazo.c"
  6848 ;; Parameters:    Size  Location     Type
  6849 ;;		None
  6850 ;; Auto vars:     Size  Location     Type
  6851 ;;		None
  6852 ;; Return value:  Size  Location     Type
  6853 ;;                  1    wreg      void 
  6854 ;; Registers used:
  6855 ;;		wreg
  6856 ;; Tracked objects:
  6857 ;;		On entry : 0/0
  6858 ;;		On exit  : 0/0
  6859 ;;		Unchanged: 0/0
  6860 ;; Data sizes:     COMMON   BANK0   BANK1   BANK3   BANK2
  6861 ;;      Params:         0       0       0       0       0
  6862 ;;      Locals:         0       0       0       0       0
  6863 ;;      Temps:          2       0       0       0       0
  6864 ;;      Totals:         2       0       0       0       0
  6865 ;;Total ram usage:        2 bytes
  6866 ;; Hardware stack levels used:    1
  6867 ;; This function calls:
  6868 ;;		Nothing
  6869 ;; This function is called by:
  6870 ;;		_isr
  6871 ;; This function uses a non-reentrant model
  6872 ;;
  6873                           
  6874                           
  6875                           ;psect for function i1_servo_1_2
  6876  0BF4                     i1_servo_1_2:
  6877  0BF4                     i1l2431:	
  6878                           ;incstack = 0
  6879                           ; Regs used in i1_servo_1_2: [wreg]
  6880                           
  6881                           
  6882                           ;main_brazo.c: 334: }
  6883  0BF4  1283               	bcf	3,5	;RP0=0, select bank0
  6884  0BF5  1303               	bcf	3,6	;RP1=0, select bank0
  6885  0BF6  1408               	bsf	8,0	;volatile
  6886  0BF7                     i1l2433:
  6887                           
  6888                           ;main_brazo.c: 335: 
  6889  0BF7  30F9               	movlw	249
  6890  0BF8  00F0               	movwf	??i1_servo_1_2
  6891  0BF9                     u321_27:
  6892  0BF9  2BFA               	nop2
  6893  0BFA  0BF0               	decfsz	??i1_servo_1_2,f
  6894  0BFB  2BF9               	goto	u321_27
  6895  0BFC  2BFD               	nop2
  6896  0BFD  2BFE               	nop2
  6897  0BFE                     i1l2435:
  6898                           
  6899                           ;main_brazo.c: 336: void servo_2_4(void){
  6900  0BFE  1283               	bcf	3,5	;RP0=0, select bank0
  6901  0BFF  1303               	bcf	3,6	;RP1=0, select bank0
  6902  0C00  1008               	bcf	8,0	;volatile
  6903                           
  6904                           ;main_brazo.c: 337:     RD1 = 1;
  6905  0C01  3019               	movlw	25
  6906  0C02  00F1               	movwf	??i1_servo_1_2+1
  6907  0C03  3058               	movlw	88
  6908  0C04  00F0               	movwf	??i1_servo_1_2
  6909  0C05                     u322_27:
  6910  0C05  0BF0               	decfsz	??i1_servo_1_2,f
  6911  0C06  2C05               	goto	u322_27
  6912  0C07  0BF1               	decfsz	??i1_servo_1_2+1,f
  6913  0C08  2C05               	goto	u322_27
  6914  0C09  0000               	nop
  6915  0C0A                     i1l270:
  6916  0C0A  0008               	return
  6917  0C0B                     __end_ofi1_servo_1_2:
  6918                           
  6919                           	psect	text39
  6920  0B8C                     __ptext39:	
  6921 ;; *************** function i1_servo_1_1 *****************
  6922 ;; Defined at:
  6923 ;;		line 326 in file "main_brazo.c"
  6924 ;; Parameters:    Size  Location     Type
  6925 ;;		None
  6926 ;; Auto vars:     Size  Location     Type
  6927 ;;		None
  6928 ;; Return value:  Size  Location     Type
  6929 ;;                  1    wreg      void 
  6930 ;; Registers used:
  6931 ;;		wreg
  6932 ;; Tracked objects:
  6933 ;;		On entry : 0/0
  6934 ;;		On exit  : 0/0
  6935 ;;		Unchanged: 0/0
  6936 ;; Data sizes:     COMMON   BANK0   BANK1   BANK3   BANK2
  6937 ;;      Params:         0       0       0       0       0
  6938 ;;      Locals:         0       0       0       0       0
  6939 ;;      Temps:          2       0       0       0       0
  6940 ;;      Totals:         2       0       0       0       0
  6941 ;;Total ram usage:        2 bytes
  6942 ;; Hardware stack levels used:    1
  6943 ;; This function calls:
  6944 ;;		Nothing
  6945 ;; This function is called by:
  6946 ;;		_isr
  6947 ;; This function uses a non-reentrant model
  6948 ;;
  6949                           
  6950                           
  6951                           ;psect for function i1_servo_1_1
  6952  0B8C                     i1_servo_1_1:
  6953  0B8C                     i1l2425:	
  6954                           ;incstack = 0
  6955                           ; Regs used in i1_servo_1_1: [wreg]
  6956                           
  6957                           
  6958                           ;main_brazo.c: 327: }
  6959  0B8C  1283               	bcf	3,5	;RP0=0, select bank0
  6960  0B8D  1303               	bcf	3,6	;RP1=0, select bank0
  6961  0B8E  1408               	bsf	8,0	;volatile
  6962  0B8F                     i1l2427:
  6963                           
  6964                           ;main_brazo.c: 328: 
  6965  0B8F  30E9               	movlw	233
  6966  0B90  00F0               	movwf	??i1_servo_1_1
  6967  0B91                     u323_27:
  6968  0B91  0BF0               	decfsz	??i1_servo_1_1,f
  6969  0B92  2B91               	goto	u323_27
  6970  0B93                     i1l2429:
  6971                           
  6972                           ;main_brazo.c: 329: void servo_2_3(void){
  6973  0B93  1283               	bcf	3,5	;RP0=0, select bank0
  6974  0B94  1303               	bcf	3,6	;RP1=0, select bank0
  6975  0B95  1008               	bcf	8,0	;volatile
  6976                           
  6977                           ;main_brazo.c: 330:     RD1 = 1;
  6978  0B96  301A               	movlw	26
  6979  0B97  00F1               	movwf	??i1_servo_1_1+1
  6980  0B98  300F               	movlw	15
  6981  0B99  00F0               	movwf	??i1_servo_1_1
  6982  0B9A                     u324_27:
  6983  0B9A  0BF0               	decfsz	??i1_servo_1_1,f
  6984  0B9B  2B9A               	goto	u324_27
  6985  0B9C  0BF1               	decfsz	??i1_servo_1_1+1,f
  6986  0B9D  2B9A               	goto	u324_27
  6987  0B9E                     i1l267:
  6988  0B9E  0008               	return
  6989  0B9F                     __end_ofi1_servo_1_1:
  6990                           
  6991                           	psect	text40
  6992  0B54                     __ptext40:	
  6993 ;; *************** function i1_motor_detenido *****************
  6994 ;; Defined at:
  6995 ;;		line 431 in file "main_brazo.c"
  6996 ;; Parameters:    Size  Location     Type
  6997 ;;		None
  6998 ;; Auto vars:     Size  Location     Type
  6999 ;;		None
  7000 ;; Return value:  Size  Location     Type
  7001 ;;                  1    wreg      void 
  7002 ;; Registers used:
  7003 ;;		status,2
  7004 ;; Tracked objects:
  7005 ;;		On entry : 0/0
  7006 ;;		On exit  : 0/0
  7007 ;;		Unchanged: 0/0
  7008 ;; Data sizes:     COMMON   BANK0   BANK1   BANK3   BANK2
  7009 ;;      Params:         0       0       0       0       0
  7010 ;;      Locals:         0       0       0       0       0
  7011 ;;      Temps:          0       0       0       0       0
  7012 ;;      Totals:         0       0       0       0       0
  7013 ;;Total ram usage:        0 bytes
  7014 ;; Hardware stack levels used:    1
  7015 ;; This function calls:
  7016 ;;		Nothing
  7017 ;; This function is called by:
  7018 ;;		_isr
  7019 ;; This function uses a non-reentrant model
  7020 ;;
  7021                           
  7022                           
  7023                           ;psect for function i1_motor_detenido
  7024  0B54                     i1_motor_detenido:
  7025  0B54                     i1l2515:	
  7026                           ;incstack = 0
  7027                           ; Regs used in i1_motor_detenido: [status,2]
  7028                           
  7029                           
  7030                           ;main_brazo.c: 432:             printf("\r 1: -45 ");
  7031  0B54  1283               	bcf	3,5	;RP0=0, select bank0
  7032  0B55  1303               	bcf	3,6	;RP1=0, select bank0
  7033  0B56  0195               	clrf	21	;volatile
  7034                           
  7035                           ;main_brazo.c: 433:             _delay((unsigned long)((250)*(4000000/4000.0)));
  7036  0B57  019B               	clrf	27	;volatile
  7037  0B58                     i1l2517:
  7038                           
  7039                           ;main_brazo.c: 434:             printf("\r 2: -90 ");
  7040  0B58  1509               	bsf	9,2	;volatile
  7041  0B59                     i1l312:
  7042  0B59  0008               	return
  7043  0B5A                     __end_ofi1_motor_detenido:
  7044                           
  7045                           	psect	text41
  7046  0C9A                     __ptext41:	
  7047 ;; *************** function i1_motor_2 *****************
  7048 ;; Defined at:
  7049 ;;		line 443 in file "main_brazo.c"
  7050 ;; Parameters:    Size  Location     Type
  7051 ;;		None
  7052 ;; Auto vars:     Size  Location     Type
  7053 ;;		None
  7054 ;; Return value:  Size  Location     Type
  7055 ;;                  1    wreg      void 
  7056 ;; Registers used:
  7057 ;;		wreg, status,2, status,0, pclath, cstack
  7058 ;; Tracked objects:
  7059 ;;		On entry : 0/0
  7060 ;;		On exit  : 0/0
  7061 ;;		Unchanged: 0/0
  7062 ;; Data sizes:     COMMON   BANK0   BANK1   BANK3   BANK2
  7063 ;;      Params:         0       0       0       0       0
  7064 ;;      Locals:         0       0       0       0       0
  7065 ;;      Temps:          2       0       0       0       0
  7066 ;;      Totals:         2       0       0       0       0
  7067 ;;Total ram usage:        2 bytes
  7068 ;; Hardware stack levels used:    1
  7069 ;; Hardware stack levels required when called:    1
  7070 ;; This function calls:
  7071 ;;		i1___awdiv
  7072 ;; This function is called by:
  7073 ;;		_isr
  7074 ;; This function uses a non-reentrant model
  7075 ;;
  7076                           
  7077                           
  7078                           ;psect for function i1_motor_2
  7079  0C9A                     i1_motor_2:
  7080  0C9A                     i1l2525:	
  7081                           ;incstack = 0
  7082                           ; Regs used in i1_motor_2: [wreg+status,2+status,0+pclath+cstack]
  7083                           
  7084                           
  7085                           ;main_brazo.c: 444:             }
  7086  0C9A  1283               	bcf	3,5	;RP0=0, select bank0
  7087  0C9B  1303               	bcf	3,6	;RP1=0, select bank0
  7088  0C9C  0195               	clrf	21	;volatile
  7089  0C9D                     i1l2527:
  7090                           
  7091                           ;main_brazo.c: 445:             if (RCREG == '2'){
  7092  0C9D  3004               	movlw	4
  7093  0C9E  00F0               	movwf	i1___awdiv@divisor
  7094  0C9F  3000               	movlw	0
  7095  0CA0  00F1               	movwf	i1___awdiv@divisor+1
  7096  0CA1  081E               	movf	30,w	;volatile
  7097  0CA2  00F9               	movwf	??i1_motor_2
  7098  0CA3  01FA               	clrf	??i1_motor_2+1
  7099  0CA4  0879               	movf	??i1_motor_2,w
  7100  0CA5  00F2               	movwf	i1___awdiv@dividend
  7101  0CA6  087A               	movf	??i1_motor_2+1,w
  7102  0CA7  00F3               	movwf	i1___awdiv@dividend+1
  7103  0CA8  120A  158A  270D  120A  158A  	fcall	i1___awdiv
  7104  0CAD  0870               	movf	?i1___awdiv,w
  7105  0CAE  1283               	bcf	3,5	;RP0=0, select bank0
  7106  0CAF  1303               	bcf	3,6	;RP1=0, select bank0
  7107  0CB0  009B               	movwf	27	;volatile
  7108  0CB1                     i1l2529:
  7109                           
  7110                           ;main_brazo.c: 446:                 servo_1_2();
  7111  0CB1  1489               	bsf	9,1	;volatile
  7112  0CB2                     i1l318:
  7113  0CB2  0008               	return
  7114  0CB3                     __end_ofi1_motor_2:
  7115                           
  7116                           	psect	text42
  7117  0C81                     __ptext42:	
  7118 ;; *************** function i1_motor_1 *****************
  7119 ;; Defined at:
  7120 ;;		line 437 in file "main_brazo.c"
  7121 ;; Parameters:    Size  Location     Type
  7122 ;;		None
  7123 ;; Auto vars:     Size  Location     Type
  7124 ;;		None
  7125 ;; Return value:  Size  Location     Type
  7126 ;;                  1    wreg      void 
  7127 ;; Registers used:
  7128 ;;		wreg, status,2, status,0, pclath, cstack
  7129 ;; Tracked objects:
  7130 ;;		On entry : 0/0
  7131 ;;		On exit  : 0/0
  7132 ;;		Unchanged: 0/0
  7133 ;; Data sizes:     COMMON   BANK0   BANK1   BANK3   BANK2
  7134 ;;      Params:         0       0       0       0       0
  7135 ;;      Locals:         0       0       0       0       0
  7136 ;;      Temps:          2       0       0       0       0
  7137 ;;      Totals:         2       0       0       0       0
  7138 ;;Total ram usage:        2 bytes
  7139 ;; Hardware stack levels used:    1
  7140 ;; Hardware stack levels required when called:    1
  7141 ;; This function calls:
  7142 ;;		i1___awdiv
  7143 ;; This function is called by:
  7144 ;;		_isr
  7145 ;; This function uses a non-reentrant model
  7146 ;;
  7147                           
  7148                           
  7149                           ;psect for function i1_motor_1
  7150  0C81                     i1_motor_1:
  7151  0C81                     i1l2519:	
  7152                           ;incstack = 0
  7153                           ; Regs used in i1_motor_1: [wreg+status,2+status,0+pclath+cstack]
  7154                           
  7155                           
  7156                           ;main_brazo.c: 438:             printf("\r 4: 90 ");
  7157  0C81  3004               	movlw	4
  7158  0C82  00F0               	movwf	i1___awdiv@divisor
  7159  0C83  3000               	movlw	0
  7160  0C84  00F1               	movwf	i1___awdiv@divisor+1
  7161  0C85  1283               	bcf	3,5	;RP0=0, select bank0
  7162  0C86  1303               	bcf	3,6	;RP1=0, select bank0
  7163  0C87  081E               	movf	30,w	;volatile
  7164  0C88  00F9               	movwf	??i1_motor_1
  7165  0C89  01FA               	clrf	??i1_motor_1+1
  7166  0C8A  0879               	movf	??i1_motor_1,w
  7167  0C8B  00F2               	movwf	i1___awdiv@dividend
  7168  0C8C  087A               	movf	??i1_motor_1+1,w
  7169  0C8D  00F3               	movwf	i1___awdiv@dividend+1
  7170  0C8E  120A  158A  270D  120A  158A  	fcall	i1___awdiv
  7171  0C93  0870               	movf	?i1___awdiv,w
  7172  0C94  1283               	bcf	3,5	;RP0=0, select bank0
  7173  0C95  1303               	bcf	3,6	;RP1=0, select bank0
  7174  0C96  0095               	movwf	21	;volatile
  7175  0C97                     i1l2521:
  7176                           
  7177                           ;main_brazo.c: 439:             _delay((unsigned long)((250)*(4000000/4000.0)));
  7178  0C97  019B               	clrf	27	;volatile
  7179  0C98                     i1l2523:
  7180                           
  7181                           ;main_brazo.c: 440:             printf("\r 5: 45 ");
  7182  0C98  1409               	bsf	9,0	;volatile
  7183  0C99                     i1l315:
  7184  0C99  0008               	return
  7185  0C9A                     __end_ofi1_motor_1:
  7186                           
  7187                           	psect	text43
  7188  0F0D                     __ptext43:	
  7189 ;; *************** function i1___awdiv *****************
  7190 ;; Defined at:
  7191 ;;		line 5 in file "C:\Program Files\Microchip\xc8\v2.31\pic\sources\c90\common\awdiv.c"
  7192 ;; Parameters:    Size  Location     Type
  7193 ;;  divisor         2    0[COMMON] int 
  7194 ;;  dividend        2    2[COMMON] int 
  7195 ;; Auto vars:     Size  Location     Type
  7196 ;;  quotient        2    7[COMMON] int 
  7197 ;;  sign            1    6[COMMON] unsigned char 
  7198 ;;  counter         1    5[COMMON] unsigned char 
  7199 ;; Return value:  Size  Location     Type
  7200 ;;                  2    0[COMMON] int 
  7201 ;; Registers used:
  7202 ;;		wreg, status,2, status,0
  7203 ;; Tracked objects:
  7204 ;;		On entry : 0/0
  7205 ;;		On exit  : 0/0
  7206 ;;		Unchanged: 0/0
  7207 ;; Data sizes:     COMMON   BANK0   BANK1   BANK3   BANK2
  7208 ;;      Params:         4       0       0       0       0
  7209 ;;      Locals:         4       0       0       0       0
  7210 ;;      Temps:          1       0       0       0       0
  7211 ;;      Totals:         9       0       0       0       0
  7212 ;;Total ram usage:        9 bytes
  7213 ;; Hardware stack levels used:    1
  7214 ;; This function calls:
  7215 ;;		Nothing
  7216 ;; This function is called by:
  7217 ;;		i1_motor_1
  7218 ;;		i1_motor_2
  7219 ;; This function uses a non-reentrant model
  7220 ;;
  7221                           
  7222                           
  7223                           ;psect for function i1___awdiv
  7224  0F0D                     i1___awdiv:
  7225  0F0D                     i1l2051:	
  7226                           ;incstack = 0
  7227                           ; Regs used in i1___awdiv: [wreg+status,2+status,0]
  7228                           
  7229  0F0D  01F6               	clrf	i1___awdiv@sign
  7230  0F0E                     i1l2053:
  7231  0F0E  1FF1               	btfss	i1___awdiv@divisor+1,7
  7232  0F0F  2F11               	goto	u128_21
  7233  0F10  2F12               	goto	u128_20
  7234  0F11                     u128_21:
  7235  0F11  2F19               	goto	i1l2059
  7236  0F12                     u128_20:
  7237  0F12                     i1l2055:
  7238  0F12  09F0               	comf	i1___awdiv@divisor,f
  7239  0F13  09F1               	comf	i1___awdiv@divisor+1,f
  7240  0F14  0AF0               	incf	i1___awdiv@divisor,f
  7241  0F15  1903               	skipnz
  7242  0F16  0AF1               	incf	i1___awdiv@divisor+1,f
  7243  0F17                     i1l2057:
  7244  0F17  01F6               	clrf	i1___awdiv@sign
  7245  0F18  0AF6               	incf	i1___awdiv@sign,f
  7246  0F19                     i1l2059:
  7247  0F19  1FF3               	btfss	i1___awdiv@dividend+1,7
  7248  0F1A  2F1C               	goto	u129_21
  7249  0F1B  2F1D               	goto	u129_20
  7250  0F1C                     u129_21:
  7251  0F1C  2F26               	goto	i1l2065
  7252  0F1D                     u129_20:
  7253  0F1D                     i1l2061:
  7254  0F1D  09F2               	comf	i1___awdiv@dividend,f
  7255  0F1E  09F3               	comf	i1___awdiv@dividend+1,f
  7256  0F1F  0AF2               	incf	i1___awdiv@dividend,f
  7257  0F20  1903               	skipnz
  7258  0F21  0AF3               	incf	i1___awdiv@dividend+1,f
  7259  0F22                     i1l2063:
  7260  0F22  3001               	movlw	1
  7261  0F23  00F4               	movwf	??i1___awdiv
  7262  0F24  0874               	movf	??i1___awdiv,w
  7263  0F25  06F6               	xorwf	i1___awdiv@sign,f
  7264  0F26                     i1l2065:
  7265  0F26  01F7               	clrf	i1___awdiv@quotient
  7266  0F27  01F8               	clrf	i1___awdiv@quotient+1
  7267  0F28                     i1l2067:
  7268  0F28  0870               	movf	i1___awdiv@divisor,w
  7269  0F29  0471               	iorwf	i1___awdiv@divisor+1,w
  7270  0F2A  1903               	btfsc	3,2
  7271  0F2B  2F2D               	goto	u130_21
  7272  0F2C  2F2E               	goto	u130_20
  7273  0F2D                     u130_21:
  7274  0F2D  2F65               	goto	i1l2087
  7275  0F2E                     u130_20:
  7276  0F2E                     i1l2069:
  7277  0F2E  01F5               	clrf	i1___awdiv@counter
  7278  0F2F  0AF5               	incf	i1___awdiv@counter,f
  7279  0F30  2F3C               	goto	i1l2075
  7280  0F31                     i1l2071:
  7281  0F31  3001               	movlw	1
  7282  0F32                     u131_25:
  7283  0F32  1003               	clrc
  7284  0F33  0DF0               	rlf	i1___awdiv@divisor,f
  7285  0F34  0DF1               	rlf	i1___awdiv@divisor+1,f
  7286  0F35  3EFF               	addlw	-1
  7287  0F36  1D03               	skipz
  7288  0F37  2F32               	goto	u131_25
  7289  0F38                     i1l2073:
  7290  0F38  3001               	movlw	1
  7291  0F39  00F4               	movwf	??i1___awdiv
  7292  0F3A  0874               	movf	??i1___awdiv,w
  7293  0F3B  07F5               	addwf	i1___awdiv@counter,f
  7294  0F3C                     i1l2075:
  7295  0F3C  1FF1               	btfss	i1___awdiv@divisor+1,7
  7296  0F3D  2F3F               	goto	u132_21
  7297  0F3E  2F40               	goto	u132_20
  7298  0F3F                     u132_21:
  7299  0F3F  2F31               	goto	i1l2071
  7300  0F40                     u132_20:
  7301  0F40                     i1l2077:
  7302  0F40  3001               	movlw	1
  7303  0F41                     u133_25:
  7304  0F41  1003               	clrc
  7305  0F42  0DF7               	rlf	i1___awdiv@quotient,f
  7306  0F43  0DF8               	rlf	i1___awdiv@quotient+1,f
  7307  0F44  3EFF               	addlw	-1
  7308  0F45  1D03               	skipz
  7309  0F46  2F41               	goto	u133_25
  7310  0F47  0871               	movf	i1___awdiv@divisor+1,w
  7311  0F48  0273               	subwf	i1___awdiv@dividend+1,w
  7312  0F49  1D03               	skipz
  7313  0F4A  2F4D               	goto	u134_25
  7314  0F4B  0870               	movf	i1___awdiv@divisor,w
  7315  0F4C  0272               	subwf	i1___awdiv@dividend,w
  7316  0F4D                     u134_25:
  7317  0F4D  1C03               	skipc
  7318  0F4E  2F50               	goto	u134_21
  7319  0F4F  2F51               	goto	u134_20
  7320  0F50                     u134_21:
  7321  0F50  2F58               	goto	i1l2083
  7322  0F51                     u134_20:
  7323  0F51                     i1l2079:
  7324  0F51  0870               	movf	i1___awdiv@divisor,w
  7325  0F52  02F2               	subwf	i1___awdiv@dividend,f
  7326  0F53  0871               	movf	i1___awdiv@divisor+1,w
  7327  0F54  1C03               	skipc
  7328  0F55  03F3               	decf	i1___awdiv@dividend+1,f
  7329  0F56  02F3               	subwf	i1___awdiv@dividend+1,f
  7330  0F57                     i1l2081:
  7331  0F57  1477               	bsf	i1___awdiv@quotient,0
  7332  0F58                     i1l2083:
  7333  0F58  3001               	movlw	1
  7334  0F59                     u135_25:
  7335  0F59  1003               	clrc
  7336  0F5A  0CF1               	rrf	i1___awdiv@divisor+1,f
  7337  0F5B  0CF0               	rrf	i1___awdiv@divisor,f
  7338  0F5C  3EFF               	addlw	-1
  7339  0F5D  1D03               	skipz
  7340  0F5E  2F59               	goto	u135_25
  7341  0F5F                     i1l2085:
  7342  0F5F  3001               	movlw	1
  7343  0F60  02F5               	subwf	i1___awdiv@counter,f
  7344  0F61  1D03               	btfss	3,2
  7345  0F62  2F64               	goto	u136_21
  7346  0F63  2F65               	goto	u136_20
  7347  0F64                     u136_21:
  7348  0F64  2F40               	goto	i1l2077
  7349  0F65                     u136_20:
  7350  0F65                     i1l2087:
  7351  0F65  0876               	movf	i1___awdiv@sign,w
  7352  0F66  1903               	btfsc	3,2
  7353  0F67  2F69               	goto	u137_21
  7354  0F68  2F6A               	goto	u137_20
  7355  0F69                     u137_21:
  7356  0F69  2F6F               	goto	i1l2091
  7357  0F6A                     u137_20:
  7358  0F6A                     i1l2089:
  7359  0F6A  09F7               	comf	i1___awdiv@quotient,f
  7360  0F6B  09F8               	comf	i1___awdiv@quotient+1,f
  7361  0F6C  0AF7               	incf	i1___awdiv@quotient,f
  7362  0F6D  1903               	skipnz
  7363  0F6E  0AF8               	incf	i1___awdiv@quotient+1,f
  7364  0F6F                     i1l2091:
  7365  0F6F  0878               	movf	i1___awdiv@quotient+1,w
  7366  0F70  00F1               	movwf	?i1___awdiv+1
  7367  0F71  0877               	movf	i1___awdiv@quotient,w
  7368  0F72  00F0               	movwf	?i1___awdiv
  7369  0F73                     i1l624:
  7370  0F73  0008               	return
  7371  0F74                     __end_ofi1___awdiv:
  7372                           
  7373                           	psect	text44
  7374  0B6A                     __ptext44:	
  7375 ;; *************** function _leer_eeprom *****************
  7376 ;; Defined at:
  7377 ;;		line 318 in file "main_brazo.c"
  7378 ;; Parameters:    Size  Location     Type
  7379 ;;  address         1    wreg     unsigned char 
  7380 ;; Auto vars:     Size  Location     Type
  7381 ;;  address         1    1[COMMON] unsigned char 
  7382 ;;  data            1    2[COMMON] unsigned char 
  7383 ;; Return value:  Size  Location     Type
  7384 ;;                  1    wreg      unsigned char 
  7385 ;; Registers used:
  7386 ;;		wreg
  7387 ;; Tracked objects:
  7388 ;;		On entry : 0/0
  7389 ;;		On exit  : 0/0
  7390 ;;		Unchanged: 0/0
  7391 ;; Data sizes:     COMMON   BANK0   BANK1   BANK3   BANK2
  7392 ;;      Params:         0       0       0       0       0
  7393 ;;      Locals:         2       0       0       0       0
  7394 ;;      Temps:          1       0       0       0       0
  7395 ;;      Totals:         3       0       0       0       0
  7396 ;;Total ram usage:        3 bytes
  7397 ;; Hardware stack levels used:    1
  7398 ;; This function calls:
  7399 ;;		Nothing
  7400 ;; This function is called by:
  7401 ;;		_isr
  7402 ;; This function uses a non-reentrant model
  7403 ;;
  7404                           
  7405                           
  7406                           ;psect for function _leer_eeprom
  7407  0B6A                     _leer_eeprom:
  7408                           
  7409                           ;incstack = 0
  7410                           ; Regs used in _leer_eeprom: [wreg]
  7411                           ;leer_eeprom@address stored from wreg
  7412  0B6A  00F1               	movwf	leer_eeprom@address
  7413  0B6B                     i1l2105:
  7414                           
  7415                           ;main_brazo.c: 319:     _delay((unsigned long)((19.3)*(4000000/4000.0)));
  7416  0B6B  0871               	movf	leer_eeprom@address,w
  7417  0B6C  1283               	bcf	3,5	;RP0=0, select bank2
  7418  0B6D  1703               	bsf	3,6	;RP1=1, select bank2
  7419  0B6E  008D               	movwf	13	;volatile
  7420  0B6F                     i1l2107:
  7421                           
  7422                           ;main_brazo.c: 320: }
  7423  0B6F  1683               	bsf	3,5	;RP0=1, select bank3
  7424  0B70  1703               	bsf	3,6	;RP1=1, select bank3
  7425  0B71  138C               	bcf	12,7	;volsfr
  7426  0B72                     i1l2109:
  7427                           
  7428                           ;main_brazo.c: 321: 
  7429  0B72  140C               	bsf	12,0	;volsfr
  7430                           
  7431                           ;main_brazo.c: 322: void servo_2_2(void){
  7432  0B73  1283               	bcf	3,5	;RP0=0, select bank2
  7433  0B74  1703               	bsf	3,6	;RP1=1, select bank2
  7434  0B75  080C               	movf	12,w	;volatile
  7435  0B76  00F0               	movwf	??_leer_eeprom
  7436  0B77  0870               	movf	??_leer_eeprom,w
  7437  0B78  00F2               	movwf	leer_eeprom@data
  7438                           
  7439                           ;main_brazo.c: 323:     RD1 = 1;
  7440  0B79  0872               	movf	leer_eeprom@data,w
  7441  0B7A                     i1l264:
  7442  0B7A  0008               	return
  7443  0B7B                     __end_of_leer_eeprom:
  7444                           
  7445                           	psect	text45
  7446  0E71                     __ptext45:	
  7447 ;; *************** function _escribir_eeprom *****************
  7448 ;; Defined at:
  7449 ;;		line 296 in file "main_brazo.c"
  7450 ;; Parameters:    Size  Location     Type
  7451 ;;  data            1    wreg     unsigned char 
  7452 ;;  address         1    0[COMMON] unsigned char 
  7453 ;; Auto vars:     Size  Location     Type
  7454 ;;  data            1    1[COMMON] unsigned char 
  7455 ;; Return value:  Size  Location     Type
  7456 ;;                  1    wreg      void 
  7457 ;; Registers used:
  7458 ;;		wreg
  7459 ;; Tracked objects:
  7460 ;;		On entry : 0/0
  7461 ;;		On exit  : 0/0
  7462 ;;		Unchanged: 0/0
  7463 ;; Data sizes:     COMMON   BANK0   BANK1   BANK3   BANK2
  7464 ;;      Params:         1       0       0       0       0
  7465 ;;      Locals:         1       0       0       0       0
  7466 ;;      Temps:          0       0       0       0       0
  7467 ;;      Totals:         2       0       0       0       0
  7468 ;;Total ram usage:        2 bytes
  7469 ;; Hardware stack levels used:    1
  7470 ;; This function calls:
  7471 ;;		Nothing
  7472 ;; This function is called by:
  7473 ;;		_isr
  7474 ;; This function uses a non-reentrant model
  7475 ;;
  7476                           
  7477                           
  7478                           ;psect for function _escribir_eeprom
  7479  0E71                     _escribir_eeprom:
  7480                           
  7481                           ;incstack = 0
  7482                           ; Regs used in _escribir_eeprom: [wreg]
  7483                           ;escribir_eeprom@data stored from wreg
  7484  0E71  00F1               	movwf	escribir_eeprom@data
  7485  0E72                     i1l2095:
  7486                           
  7487                           ;main_brazo.c: 297:     RD0 = 0;
  7488  0E72  0870               	movf	escribir_eeprom@address,w
  7489  0E73  1283               	bcf	3,5	;RP0=0, select bank2
  7490  0E74  1703               	bsf	3,6	;RP1=1, select bank2
  7491  0E75  008D               	movwf	13	;volatile
  7492                           
  7493                           ;main_brazo.c: 298:     _delay((unsigned long)((18.5)*(4000000/4000.0)));
  7494  0E76  0871               	movf	escribir_eeprom@data,w
  7495  0E77  008C               	movwf	12	;volatile
  7496  0E78                     i1l2097:
  7497                           
  7498                           ;main_brazo.c: 300: 
  7499  0E78  1683               	bsf	3,5	;RP0=1, select bank3
  7500  0E79  1703               	bsf	3,6	;RP1=1, select bank3
  7501  0E7A  138C               	bcf	12,7	;volsfr
  7502  0E7B                     i1l2099:
  7503                           
  7504                           ;main_brazo.c: 301: void servo_1_4(void){
  7505  0E7B  150C               	bsf	12,2	;volsfr
  7506  0E7C                     i1l2101:
  7507                           
  7508                           ;main_brazo.c: 303:     _delay((unsigned long)((1.75)*(4000000/4000.0)));
  7509  0E7C  138B               	bcf	11,7	;volatile
  7510                           
  7511                           ;main_brazo.c: 305:     _delay((unsigned long)((18.25)*(4000000/4000.0)));
  7512  0E7D  3055               	movlw	85
  7513  0E7E  008D               	movwf	13	;volsfr
  7514                           
  7515                           ;main_brazo.c: 306: }
  7516  0E7F  30AA               	movlw	170
  7517  0E80  008D               	movwf	13	;volsfr
  7518  0E81                     i1l2103:
  7519                           
  7520                           ;main_brazo.c: 308: void servo_1_5(void){
  7521  0E81  148C               	bsf	12,1	;volsfr
  7522  0E82                     i1l258:	
  7523                           ;main_brazo.c: 310:     _delay((unsigned long)((2)*(4000000/4000.0)));
  7524                           
  7525  0E82  1283               	bcf	3,5	;RP0=0, select bank0
  7526  0E83  1303               	bcf	3,6	;RP1=0, select bank0
  7527  0E84  1E0D               	btfss	13,4	;volatile
  7528  0E85  2E87               	goto	u138_21
  7529  0E86  2E88               	goto	u138_20
  7530  0E87                     u138_21:
  7531  0E87  2E82               	goto	i1l258
  7532  0E88                     u138_20:
  7533  0E88                     i1l260:
  7534                           
  7535                           ;main_brazo.c: 311:     RD0 = 0;
  7536  0E88  120D               	bcf	13,4	;volatile
  7537                           
  7538                           ;main_brazo.c: 313: }
  7539  0E89  1683               	bsf	3,5	;RP0=1, select bank3
  7540  0E8A  1703               	bsf	3,6	;RP1=1, select bank3
  7541  0E8B  110C               	bcf	12,2	;volsfr
  7542                           
  7543                           ;main_brazo.c: 314: 
  7544  0E8C  138B               	bcf	11,7	;volatile
  7545  0E8D                     i1l261:	
  7546                           ;main_brazo.c: 315: void servo_2_1(void){
  7547                           
  7548  0E8D  0008               	return
  7549  0E8E                     __end_of_escribir_eeprom:
  7550  007E                     btemp	set	126	;btemp
  7551  007E                     wtemp0	set	126
  7552                           
  7553                           	psect	config
  7554                           
  7555                           ;Config register CONFIG1 @ 0x2007
  7556                           ;	Oscillator Selection bits
  7557                           ;	FOSC = INTRC_NOCLKOUT, INTOSCIO oscillator: I/O function on RA6/OSC2/CLKOUT pin, I/O f
      +                          unction on RA7/OSC1/CLKIN
  7558                           ;	Watchdog Timer Enable bit
  7559                           ;	WDTE = OFF, WDT disabled and can be enabled by SWDTEN bit of the WDTCON register
  7560                           ;	Power-up Timer Enable bit
  7561                           ;	PWRTE = OFF, PWRT disabled
  7562                           ;	RE3/MCLR pin function select bit
  7563                           ;	MCLRE = OFF, RE3/MCLR pin function is digital input, MCLR internally tied to VDD
  7564                           ;	Code Protection bit
  7565                           ;	CP = OFF, Program memory code protection is disabled
  7566                           ;	Data Code Protection bit
  7567                           ;	CPD = OFF, Data memory code protection is disabled
  7568                           ;	Brown Out Reset Selection bits
  7569                           ;	BOREN = OFF, BOR disabled
  7570                           ;	Internal External Switchover bit
  7571                           ;	IESO = OFF, Internal/External Switchover mode is disabled
  7572                           ;	Fail-Safe Clock Monitor Enabled bit
  7573                           ;	FCMEN = OFF, Fail-Safe Clock Monitor is disabled
  7574                           ;	Low Voltage Programming Enable bit
  7575                           ;	LVP = OFF, RB3 pin has digital I/O, HV on MCLR must be used for programming
  7576                           ;	In-Circuit Debugger Mode bit
  7577                           ;	DEBUG = 0x1, unprogrammed default
  7578  2007                     	org	8199
  7579  2007  20D4               	dw	8404
  7580                           
  7581                           ;Config register CONFIG2 @ 0x2008
  7582                           ;	Brown-out Reset Selection bit
  7583                           ;	BOR4V = BOR40V, Brown-out Reset set to 4.0V
  7584                           ;	Flash Program Memory Self Write Enable bits
  7585                           ;	WRT = OFF, Write protection off
  7586  2008                     	org	8200
  7587  2008  3FFF               	dw	16383

Data Sizes:
    Strings     330
    Constant    0
    Data        0
    BSS         14
    Persistent  0
    Stack       0

Auto Spaces:
    Space          Size  Autos    Used
    COMMON           14     11      14
    BANK0            80     19      30
    BANK1            80      0       0
    BANK3            96      0       0
    BANK2            96      0       0

Pointer List with Targets:

    printf@f	PTR const unsigned char  size(2) Largest target is 55
		 -> STR_30(CODE[13]), STR_29(CODE[15]), STR_28(CODE[13]), STR_27(CODE[38]), 
		 -> STR_26(CODE[9]), STR_25(CODE[9]), STR_24(CODE[8]), STR_23(CODE[10]), 
		 -> STR_22(CODE[10]), STR_21(CODE[55]), STR_20(CODE[9]), STR_19(CODE[9]), 
		 -> STR_18(CODE[8]), STR_17(CODE[10]), STR_16(CODE[10]), STR_15(CODE[55]), 
		 -> STR_14(CODE[9]), STR_13(CODE[9]), STR_12(CODE[8]), STR_11(CODE[10]), 
		 -> STR_10(CODE[10]), STR_9(CODE[55]), STR_8(CODE[13]), STR_7(CODE[13]), 
		 -> STR_6(CODE[13]), STR_5(CODE[37]), STR_4(CODE[7]), STR_3(CODE[18]), 
		 -> STR_2(CODE[19]), STR_1(CODE[30]), 

    printf@ap	PTR void [1] size(1) Largest target is 2
		 -> ?_printf(BANK0[2]), 


Critical Paths under _main in COMMON

    None.

Critical Paths under _isr in COMMON

    _isr->i1_motor_1
    _isr->i1_motor_2
    i1_motor_2->i1___awdiv
    i1_motor_1->i1___awdiv

Critical Paths under _main in BANK0

    _main->_mensaje
    _mensaje->_motor_1
    _mensaje->_motor_2
    _printf->_putch
    _motor_2->___awdiv
    _motor_1->___awdiv

Critical Paths under _isr in BANK0

    None.

Critical Paths under _main in BANK1

    None.

Critical Paths under _isr in BANK1

    None.

Critical Paths under _main in BANK3

    None.

Critical Paths under _isr in BANK3

    None.

Critical Paths under _main in BANK2

    None.

Critical Paths under _isr in BANK2

    None.

Call Graph Tables:

 ---------------------------------------------------------------------------------
 (Depth) Function   	        Calls       Base Space   Used Autos Params    Refs
 ---------------------------------------------------------------------------------
 (0) _main                                                 0     0      0    3556
                            _mensaje
                              _setup
 ---------------------------------------------------------------------------------
 (1) _setup                                                1     1      0       0
                                              5 BANK0      1     1      0
 ---------------------------------------------------------------------------------
 (1) _mensaje                                              3     3      0    3556
                                             16 BANK0      3     3      0
                            _motor_1
                            _motor_2
                     _motor_detenido
                             _printf
                          _servo_1_1
                          _servo_1_2
                          _servo_1_3
                          _servo_1_4
                          _servo_1_5
                          _servo_2_1
                          _servo_2_2
                          _servo_2_3
                          _servo_2_4
                          _servo_2_5
                          _servo_3_1
                          _servo_3_2
                          _servo_3_3
                          _servo_3_4
                          _servo_3_5
 ---------------------------------------------------------------------------------
 (2) _servo_3_5                                            2     2      0       0
                                              5 BANK0      2     2      0
 ---------------------------------------------------------------------------------
 (2) _servo_3_4                                            2     2      0       0
                                              5 BANK0      2     2      0
 ---------------------------------------------------------------------------------
 (2) _servo_3_3                                            2     2      0       0
                                              5 BANK0      2     2      0
 ---------------------------------------------------------------------------------
 (2) _servo_3_2                                            2     2      0       0
                                              5 BANK0      2     2      0
 ---------------------------------------------------------------------------------
 (2) _servo_3_1                                            2     2      0       0
                                              5 BANK0      2     2      0
 ---------------------------------------------------------------------------------
 (2) _servo_2_5                                            2     2      0       0
                                              5 BANK0      2     2      0
 ---------------------------------------------------------------------------------
 (2) _servo_2_4                                            2     2      0       0
                                              5 BANK0      2     2      0
 ---------------------------------------------------------------------------------
 (2) _servo_2_3                                            2     2      0       0
                                              5 BANK0      2     2      0
 ---------------------------------------------------------------------------------
 (2) _servo_2_2                                            2     2      0       0
                                              5 BANK0      2     2      0
 ---------------------------------------------------------------------------------
 (2) _servo_2_1                                            2     2      0       0
                                              5 BANK0      2     2      0
 ---------------------------------------------------------------------------------
 (2) _servo_1_5                                            2     2      0       0
                                              5 BANK0      2     2      0
 ---------------------------------------------------------------------------------
 (2) _servo_1_4                                            2     2      0       0
                                              5 BANK0      2     2      0
 ---------------------------------------------------------------------------------
 (2) _servo_1_3                                            2     2      0       0
                                              5 BANK0      2     2      0
 ---------------------------------------------------------------------------------
 (2) _servo_1_2                                            2     2      0       0
                                              5 BANK0      2     2      0
 ---------------------------------------------------------------------------------
 (2) _servo_1_1                                            2     2      0       0
                                              5 BANK0      2     2      0
 ---------------------------------------------------------------------------------
 (2) _printf                                              19    17      2    2348
                                              6 BANK0      7     5      2
                              _putch
 ---------------------------------------------------------------------------------
 (3) _putch                                                1     1      0      22
                                              5 BANK0      1     1      0
 ---------------------------------------------------------------------------------
 (2) _motor_detenido                                       0     0      0       0
 ---------------------------------------------------------------------------------
 (2) _motor_2                                              2     2      0     604
                                             14 BANK0      2     2      0
                            ___awdiv
 ---------------------------------------------------------------------------------
 (2) _motor_1                                              2     2      0     604
                                             14 BANK0      2     2      0
                            ___awdiv
 ---------------------------------------------------------------------------------
 (3) ___awdiv                                              9     5      4     604
                                              5 BANK0      9     5      4
 ---------------------------------------------------------------------------------
 Estimated maximum stack depth 3
 ---------------------------------------------------------------------------------
 (Depth) Function   	        Calls       Base Space   Used Autos Params    Refs
 ---------------------------------------------------------------------------------
 (4) _isr                                                  5     5      0    1201
                                              0 BANK0      5     5      0
                    _escribir_eeprom
                        _leer_eeprom
                          i1_motor_1
                          i1_motor_2
                   i1_motor_detenido
                        i1_servo_1_1
                        i1_servo_1_2
                        i1_servo_1_3
                        i1_servo_1_4
                        i1_servo_1_5
                        i1_servo_2_1
                        i1_servo_2_2
                        i1_servo_2_3
                        i1_servo_2_4
                        i1_servo_2_5
                        i1_servo_3_1
                        i1_servo_3_2
                        i1_servo_3_3
                        i1_servo_3_4
                        i1_servo_3_5
 ---------------------------------------------------------------------------------
 (5) i1_servo_3_5                                          2     2      0       0
                                              0 COMMON     2     2      0
 ---------------------------------------------------------------------------------
 (5) i1_servo_3_4                                          2     2      0       0
                                              0 COMMON     2     2      0
 ---------------------------------------------------------------------------------
 (5) i1_servo_3_3                                          2     2      0       0
                                              0 COMMON     2     2      0
 ---------------------------------------------------------------------------------
 (5) i1_servo_3_2                                          2     2      0       0
                                              0 COMMON     2     2      0
 ---------------------------------------------------------------------------------
 (5) i1_servo_3_1                                          2     2      0       0
                                              0 COMMON     2     2      0
 ---------------------------------------------------------------------------------
 (5) i1_servo_2_5                                          2     2      0       0
                                              0 COMMON     2     2      0
 ---------------------------------------------------------------------------------
 (5) i1_servo_2_4                                          2     2      0       0
                                              0 COMMON     2     2      0
 ---------------------------------------------------------------------------------
 (5) i1_servo_2_3                                          2     2      0       0
                                              0 COMMON     2     2      0
 ---------------------------------------------------------------------------------
 (5) i1_servo_2_2                                          2     2      0       0
                                              0 COMMON     2     2      0
 ---------------------------------------------------------------------------------
 (5) i1_servo_2_1                                          2     2      0       0
                                              0 COMMON     2     2      0
 ---------------------------------------------------------------------------------
 (5) i1_servo_1_5                                          2     2      0       0
                                              0 COMMON     2     2      0
 ---------------------------------------------------------------------------------
 (5) i1_servo_1_4                                          2     2      0       0
                                              0 COMMON     2     2      0
 ---------------------------------------------------------------------------------
 (5) i1_servo_1_3                                          2     2      0       0
                                              0 COMMON     2     2      0
 ---------------------------------------------------------------------------------
 (5) i1_servo_1_2                                          2     2      0       0
                                              0 COMMON     2     2      0
 ---------------------------------------------------------------------------------
 (5) i1_servo_1_1                                          2     2      0       0
                                              0 COMMON     2     2      0
 ---------------------------------------------------------------------------------
 (5) i1_motor_detenido                                     0     0      0       0
 ---------------------------------------------------------------------------------
 (5) i1_motor_2                                            2     2      0     404
                                              9 COMMON     2     2      0
                          i1___awdiv
 ---------------------------------------------------------------------------------
 (5) i1_motor_1                                            2     2      0     404
                                              9 COMMON     2     2      0
                          i1___awdiv
 ---------------------------------------------------------------------------------
 (6) i1___awdiv                                            9     5      4     404
                                              0 COMMON     9     5      4
 ---------------------------------------------------------------------------------
 (5) _leer_eeprom                                          3     3      0      45
                                              0 COMMON     3     3      0
 ---------------------------------------------------------------------------------
 (5) _escribir_eeprom                                      2     1      1     348
                                              0 COMMON     2     1      1
 ---------------------------------------------------------------------------------
 Estimated maximum stack depth 6
 ---------------------------------------------------------------------------------

 Call Graph Graphs:

 _main (ROOT)
   _mensaje
     _motor_1
       ___awdiv
     _motor_2
       ___awdiv
     _motor_detenido
     _printf
       _putch
     _servo_1_1
     _servo_1_2
     _servo_1_3
     _servo_1_4
     _servo_1_5
     _servo_2_1
     _servo_2_2
     _servo_2_3
     _servo_2_4
     _servo_2_5
     _servo_3_1
     _servo_3_2
     _servo_3_3
     _servo_3_4
     _servo_3_5
   _setup

 _isr (ROOT)
   _escribir_eeprom
   _leer_eeprom
   i1_motor_1
     i1___awdiv
   i1_motor_2
     i1___awdiv
   i1_motor_detenido
   i1_servo_1_1
   i1_servo_1_2
   i1_servo_1_3
   i1_servo_1_4
   i1_servo_1_5
   i1_servo_2_1
   i1_servo_2_2
   i1_servo_2_3
   i1_servo_2_4
   i1_servo_2_5
   i1_servo_3_1
   i1_servo_3_2
   i1_servo_3_3
   i1_servo_3_4
   i1_servo_3_5

 Address spaces:
Name               Size   Autos  Total    Cost      Usage
BITCOMMON            E      0       0       0        0.0%
EEDATA             100      0       0       0        0.0%
NULL                 0      0       0       0        0.0%
CODE                 0      0       0       0        0.0%
COMMON               E      B       E       1      100.0%
BITSFR0              0      0       0       1        0.0%
SFR0                 0      0       0       1        0.0%
BITSFR1              0      0       0       2        0.0%
SFR1                 0      0       0       2        0.0%
STACK                0      0       0       2        0.0%
ABS                  0      0      2C       3        0.0%
BITBANK0            50      0       0       4        0.0%
BITSFR3              0      0       0       4        0.0%
SFR3                 0      0       0       4        0.0%
BANK0               50     13      1E       5       37.5%
BITSFR2              0      0       0       5        0.0%
SFR2                 0      0       0       5        0.0%
BITBANK1            50      0       0       6        0.0%
BANK1               50      0       0       7        0.0%
BITBANK3            60      0       0       8        0.0%
BANK3               60      0       0       9        0.0%
BITBANK2            60      0       0      10        0.0%
BANK2               60      0       0      11        0.0%
DATA                 0      0      2C      12        0.0%


Microchip Technology PIC Macro Assembler V2.31 build 20201012212115 
Symbol Table                                                                                   Thu Jun 03 17:49:12 2021

      __end_ofi1_servo_1_1 0B9F        __end_ofi1_servo_1_2 0C0B        __end_ofi1_servo_1_3 0BC8  
      __end_ofi1_servo_1_4 0CCC        __end_ofi1_servo_1_5 0C51        __end_ofi1_servo_2_1 0BB2  
      __end_ofi1_servo_2_2 0C22        __end_ofi1_servo_2_3 0BDE        __end_ofi1_servo_2_4 0CE5  
      __end_ofi1_servo_2_5 0C69        __end_ofi1_servo_3_1 07FE        __end_ofi1_servo_3_2 0C39  
      __end_ofi1_servo_3_3 0BF4        __end_ofi1_servo_3_4 0CFE        __end_ofi1_servo_3_5 0C81  
                        pc 0002               ___awdiv@sign 002B                         fsr 0004  
                      l300 0DC8                        l303 0EE4                        l312 0B5F  
                      l321 0B63                        l306 0E54                        l315 0D16  
                      l331 00F9                        l324 0B69                        l340 01DA  
                      l309 0E70                        l318 0D2F                        l270 0D94  
                      l327 0089                        l273 0EAA                        l282 0D61  
                      l362 040A                        l267 0D48                        l291 0E1C  
                      l276 0DE4                        l372 0FCC                        l285 0DAE  
                      l349 02BB                        l294 0E38                        l358 039C  
                      l374 0FD0                        l279 0E00                        l375 0FFF  
                      l624 07EA                        l288 0EC7                        l297 0D7A  
                      l369 0435                        l467 0F0C                        _RB0 0030  
                      _RB1 0031                        _RB2 0032                        _RB3 0033  
                      _RB4 0034                        _RD0 0040                        _RB5 0035  
                      _RD1 0041                        _RE0 0048                        _RB6 0036  
                      _RD2 0042                        _RE1 0049                        _RE2 004A  
                      _PR2 0092                        _isr 0436                        fsr0 0004  
                      indf 0000                       l2001 0EB9                       l2003 0E01  
                     l2011 0E20                       l2005 0E04                       l2013 0E2A  
                     l2021 0DAF                       l2007 0E0E                       l2015 0D62  
                     l2023 0DB2                       l2031 0ED6                       l2009 0E1D  
                     l2017 0D65                       l2025 0DBA                       l2033 0E39  
                     l2041 0E58                       l2201 0FC6                       l2121 0F86  
                     l2113 0F74                       l2019 0D6C                       l2027 0EC8  
                     l2035 0E3C                       l2043 0E62                       l2211 0FCB  
                     l2203 0FC7                       l2131 0F8B                       l2123 0F87  
                     l2115 0F81                       l2045 0EE5                       l2029 0ECB  
                     l2037 0E46                       l2301 01A1                       l2221 0FEA  
                     l2213 0FE1                       l2205 0FC8                       l2141 0F90  
                     l2133 0F8C                       l2125 0F88                       l2117 0F82  
                     l2047 0EEC                       l2039 0E55                       l2311 01C0  
                     l2303 01A6                       l2231 0FF3                       l2223 0FEB  
                     l2215 0FE3                       l2207 0FC9                       l2151 0F95  
                     l2143 0F91                       l2135 0F8D                       l2127 0F89  
                     l2119 0F85                       l2049 0EF2                       l2401 03A8  
                     l2321 01E6                       l2313 01C8                       l2305 01AE  
                     l2241 0FFA                       l2233 0FF6                       l2225 0FEE  
                     l2217 0FE4                       l2209 0FCA                       l2161 0F9A  
                     l2153 0F96                       l2145 0F92                       l2137 0F8E  
                     l2129 0F8A                       l2411 03FC                       l2403 03B1  
                     l2331 023A                       l2323 01EF                       l2315 01CD  
                     l2307 01B3                       l2243 0FFB                       l2235 0FF7  
                     l2227 0FEF                       l2219 0FE7                       l2171 0FA8  
                     l2163 0F9B                       l2155 0F97                       l2147 0F93  
                     l2139 0F8F                       l2421 0428                       l2413 0410  
                     l2405 03BF                       l2341 0282                       l2333 0248  
                     l2325 01FD                       l2317 01D5                       l2309 01BB  
                     l2261 0065                       l2253 0025                       l2245 0FFC  
                     l2237 0FF8                       l2229 0FF2                       l2181 0FB1  
                     l2173 0FAB                       l2165 0F9C                       l2157 0F98  
                     l2149 0F94                       l2423 0430                       l2415 0416  
                     l2407 03D8                       l2351 02A1                       l2343 0287  
                     l2335 0261                       l2327 0216                       l2319 01E0  
                     l2271 00AE                       l2263 007E                       l2255 0033  
                     l2247 0FFD                       l2239 0FF9                       l2191 0FBA  
                     l2183 0FB2                       l2175 0FAC                       l2167 0F9D  
                     l2159 0F99                       l2417 041B                       l2409 03E3  
                     l2361 02C7                       l2353 02A9                       l2345 028F  
                     l2337 026C                       l2329 0221                       l2281 0105  
                     l2273 00C7                       l2265 008F                       l2257 003E  
                     l2249 0FFE                       l2193 0FBC                       l2185 0FB3  
                     l2177 0FAD                       l2169 0FA1                       l2419 0423  
                     l2371 031B                       l2363 02D0                       l2355 02AE  
                     l2347 0294                       l2339 027A                       l2291 0159  
                     l2283 010E                       l2275 00D5                       l2267 0095  
                     l2259 0057                       l2195 0FC0                       l2187 0FB4  
                     l2179 0FB0                       l1901 078E                       l2381 0363  
                     l2373 0329                       l2365 02DE                       l2357 02B6  
                     l2349 029C                       l2293 0167                       l2285 011C  
                     l2277 00EE                       l2269 00A3                       l2197 0FC2  
                     l2189 0FB6                       l1911 079F                       l1903 0790  
                     l2391 0382                       l2383 0368                       l2375 0342  
                     l2367 02F7                       l2359 02C1                       l2295 0180  
                     l2287 0135                       l2279 00FF                       l2199 0FC4  
                     l1921 07B7                       l1913 07A5                       l1905 0794  
                     l2393 038A                       l2385 0370                       l2377 034D  
                     l2369 0302                       l2297 018B                       l2289 0140  
                     l1923 07C8                       l1915 07A8                       l1931 07DC  
                     l1907 0799                       l2395 038F                       l2387 0375  
                     l2379 035B                       l2299 0199                       l1933 07E1  
                     l1925 07CE                       l1917 07AF                       l1909 079D  
                     l1941 0B5E                       l2397 0397                       l2389 037D  
                     l1935 07E6                       l1927 07CF                       l1919 07B3  
                     l1943 0CFE                       l1951 0D1A                       l2399 03A2  
                     l1929 07D6                       l1945 0D14                       l1953 0D2E  
                     l1961 0D7B                       l1947 0D15                       l1939 0B5A  
                     l1891 0B67                       l1955 0D30                       l1963 0D7E  
                     l1971 0E9C                       l1949 0D17                       l1957 0D33  
                     l1965 0D86                       l1973 0DC9                       l1981 0DE8  
                     l1895 0782                       l1959 0D3A                       l1967 0E8E  
                     l1975 0DCC                       l1983 0DF2                       l1991 0D95  
                     l1897 0785                       l1889 0B63                       l1969 0E91  
                     l1977 0DD6                       l1985 0D49                       l1993 0D98  
                     l1899 0789                       l1979 0DE5                       l1987 0D4C  
                     l1995 0DA0                       l2795 0B7B                       l1989 0D53  
                     l1997 0EAB                       l2797 0B80                       l1999 0EAE  
                     l2799 0B83                       _ADIF 0066                       ?_isr 0070  
             ?_leer_eeprom 0070                       STR_1 0882                       STR_2 08A0  
                     STR_3 08B3                       STR_4 0943                       STR_5 085D  
                     STR_6 08D4                       STR_7 08E1                       STR_8 08EE  
                     STR_9 0800                       u1210 07B7                       u1211 07B6  
                     u1205 07A9                       u1230 07C8                       u1231 07C7  
                     u1160 0B67                       u1400 008F                       u1225 07B8  
                     u1161 0B66                       u1401 008E                       u1250 07DC  
                     u1170 0789                       u1410 0095                       u1251 07DB  
                     u1235 07C4                       u1171 0788                       u1411 0094  
                     u1260 07E1                       u1180 0794                       u1500 01E6  
                     u1420 00FF                       u1261 07E0                       u1245 07D0  
                     u1181 0793                       u1501 01E5                       u1421 00FE  
                     u1190 07A5                       u1270 0F0C                       u1510 0282  
                     u1430 0105                       u1191 07A4                       u1271 0F0B  
                     u1511 0281                       u1431 0104                       u1600 037D  
                     u1520 028F                       u1440 01A1                       u1601 037C  
                     u1521 028E                       u1441 01A0                       u1610 038A  
                     u1530 029C                       u1450 01AE                       u1611 0389  
                     u1531 029B                       u1451 01AD                       u1620 0397  
                     u1540 02A9                       u1460 01BB                       u1621 0396  
                     u1541 02A8                       u1461 01BA                       u2317 0FA5  
                     u1630 03A2                       u1550 02B6                       u1470 01C8  
                     u1390 0FD0                       u1631 03A1                       u1551 02B5  
                     u1471 01C7                       u2407 0116                       u2327 002D  
                     u1391 0FCF                       u1640 03A8                       u1560 02C1  
                     u1480 01D5                       u1641 03A7                       u1561 02C0  
                     u1481 01D4                       u2417 012F                       u2337 0046  
                     u1650 0410                       u1570 02C7                       u1490 01E0  
                     u1651 040F                       u1571 02C6                       u2507 025B  
                     u1491 01DF                       u2427 0148                       u2347 005F  
                     u1660 0416                       u1580 0363                       u1661 0415  
                     u1581 0362                       u2517 0274                       u2437 0161  
                     u2357 0078                       u1670 0423                       u1590 0370  
                     u1671 0422                       u2607 03EB                       u1591 036F  
                     u2527 02D8                       u2447 017A                       u2367 009D  
                     u1680 0430                       u1681 042F                       u2617 0404  
                     u2537 02F1                       u2457 0193                       u2377 00B6  
                     u2707 0D69                       u2627 0E5E                       u2547 030A  
                     u2467 01F7                       u2387 00CF                       u2717 0D75  
                     u2637 0E6B                       u2557 0323                       u2477 0210  
                     u2397 00E8                       u2807 0D50                       u2727 0E26  
                     u2647 0E40                       u2567 033C                       u2487 0229  
                     u2817 0D5C                       u2737 0E33                       u2657 0E4F  
                     u2577 0355                       u2497 0242                       u2907 0D37  
                     u2827 0DEE                       u2747 0E08                       u2667 0ECF  
                     u2587 03B9                       u2917 0D43                       u2837 0DFB  
                     u2757 0E17                       u2677 0EDF                       u2597 03D2  
                     u2847 0DD0                       u2767 0EB2                       u2687 0DB6  
                     _RBIF 0058                       u2857 0DDF                       u2777 0EC2  
                     u2697 0DC3                       u2867 0E95                       u2787 0D9C  
                     _RCIF 0065                       u2877 0EA5                       u2797 0DA9  
                     u2887 0D82                       u2897 0D8F                       _TXIF 0064  
                     _main 0B7B                       _pot2 007D                       _pot3 007C  
                     _pot4 007B                       btemp 007E   __size_of_escribir_eeprom 001D  
                     start 000E                      ??_isr 0020                      ?_main 0070  
           i1___awdiv@sign 0076            __end_of___awdiv 07EB                      _EEADR 010D  
                    STR_10 091F                      _EEDAT 010C                      STR_11 0915  
                    STR_20 0932                      STR_12 093B                      STR_21 0800  
                    STR_13 0929                      STR_22 091F                      STR_14 0932  
                    STR_30 0908                      STR_23 0915                      STR_15 0800  
                    STR_24 093B                      STR_16 091F                      STR_25 0929  
                    STR_17 0915                      STR_18 093B                      STR_26 0932  
                    STR_19 0929                      STR_27 0837                      STR_28 08FB  
                    STR_29 08C5            ___awdiv@divisor 0025                      i1l201 0465  
                    i1l203 0475                      i1l300 0C38                      i1l303 0BF3  
                    i1l312 0B59                      i1l306 0CFD                      i1l315 0C99  
                    i1l260 0E88                      i1l261 0E8D                      i1l309 0C80  
                    i1l318 0CB2                      i1l270 0C0A                      i1l247 0779  
                    i1l264 0B7A                      i1l273 0BC7                      i1l258 0E82  
                    i1l282 0BB1                      i1l267 0B9E                      i1l291 0CE4  
                    i1l276 0CCB                      i1l285 0C21                      i1l294 0C68  
                    i1l279 0C50                      i1l199 0457                      i1l624 0F73  
                    i1l288 0BDD                      i1l297 07FD            ___awdiv@counter 002A  
                    _RCREG 001A                      _SPBRG 0099                      _PORTA 0005  
                    _PORTB 0006                      _PORTC 0007                      _PORTD 0008  
                    _PORTE 0009                      _TXREG 0019            __end_of_mensaje 0436  
                    _motor 003D                      _valor 003A                      _setup 0F74  
                    _putch 0B60                      pclath 000A            __end_of_motor_1 0D17  
          __end_of_motor_2 0D30                      status 0003                      wtemp0 007E  
       __size_ofi1___awdiv 0067                i1_servo_1_1 0B8C                i1_servo_1_2 0BF4  
              i1_servo_1_3 0BB2                i1_servo_1_4 0CB3                i1_servo_2_1 0B9F  
              i1_servo_1_5 0C39                i1_servo_2_2 0C0B                i1_servo_2_3 0BC8  
              i1_servo_2_4 0CCC                i1_servo_3_1 07EB                i1_servo_2_5 0C51  
              i1_servo_3_2 0C22                i1_servo_3_3 0BDE                i1_servo_3_4 0CE5  
              i1_servo_3_5 0C69            __initialization 0011               __end_of_main 0B8C  
 __end_ofi1_motor_detenido 0B5A         __size_ofi1_motor_1 0019         __size_ofi1_motor_2 0019  
                   ??_main 0033                     _ADRESH 001E                     _EEDATA 010C  
                   _CCPR1L 0015                     _CCPR2L 001B                     _EECON2 018D  
         ___awdiv@dividend 0027                     ?_setup 0070                     ?_putch 0070  
                   _ANSELH 0189                     i1l2101 0E7C                     i1l2103 0E81  
                   i1l2105 0B6B                     i1l2107 0B6F                     i1l2051 0F0D  
                   i1l2109 0B72                     i1l2061 0F1D                     i1l2053 0F0E  
                   i1l2071 0F31                     i1l2063 0F22                     i1l2055 0F12  
                   u200_20 0582                     i1l2081 0F57                     i1l2073 0F38  
                   i1l2065 0F26                     i1l2057 0F17                     u200_21 0581  
                   i1l2091 0F6F                     i1l2083 0F58                     i1l2075 0F3C  
                   i1l2067 0F28                     i1l2059 0F19                     i1l2085 0F5F  
                   i1l2077 0F40                     i1l2069 0F2E                     i1l2501 0BE8  
                   i1l2095 0E72                     i1l2079 0F51                     i1l2087 0F65  
                   i1l2431 0BF4                     i1l2503 0CE5                     i1l2511 0C6C  
                   u201_20 0595                     i1l2097 0E78                     i1l2089 0F6A  
                   i1l2521 0C97                     i1l2425 0B8C                     i1l2433 0BF7  
                   i1l2441 0BBC                     i1l2505 0CE8                     i1l2513 0C75  
                   u201_21 0594                     i1l2601 0507                     i1l2099 0E7B  
                   i1l2523 0C98                     i1l2515 0B54                     i1l2427 0B8F  
                   i1l2435 0BFE                     i1l2443 0CB3                     i1l2451 0C3C  
                   i1l2507 0CF1                     i1l2611 0523                     i1l2603 050D  
                   i1l2531 0436                     i1l2525 0C9A                     i1l2517 0B58  
                   i1l2429 0B93                     i1l2437 0BB2                     i1l2445 0CB6  
                   i1l2453 0C45                     i1l2461 0C0B                     i1l2509 0C69  
                   i1l2701 066A                     i1l2621 053E                     i1l2613 0529  
                   i1l2605 0512                     i1l2541 0450                     i1l2533 043A  
                   i1l2519 0C81                     i1l2527 0C9D                     i1l2439 0BB5  
                   i1l2447 0CBF                     i1l2455 0B9F                     i1l2463 0C0E  
                   i1l2471 0BD2                     i1l2711 0686                     i1l2703 066F  
                   i1l2631 055A                     i1l2623 0544                     i1l2607 0518  
                   i1l2615 052F                     i1l2543 045B                     i1l2535 0443  
                   i1l2551 0479                     u130_20 0F2E                     u210_20 0659  
                   u202_20 059B                     u130_21 0F2D                     i1l2529 0CB1  
                   i1l2449 0C39                     i1l2457 0BA2                     i1l2465 0C15  
                   i1l2473 0CCC                     i1l2481 0C54                     i1l2721 06A3  
                   i1l2713 068C                     i1l2705 0675                     u210_21 0658  
                   u202_21 059A                     i1l2641 0577                     i1l2633 0560  
                   i1l2625 0549                     i1l2617 0538                     i1l2609 051E  
                   i1l2561 0495                     i1l2553 0482                     i1l2545 0460  
                   i1l2537 0447                     i1l2459 0BA6                     i1l2467 0BC8  
                   i1l2475 0CCF                     i1l2483 0C5D                     i1l2491 0C22  
                   i1l2731 06C0                     i1l2723 06A9                     i1l2715 0692  
                   i1l2707 067B                     i1l2643 057C                     i1l2635 0566  
                   i1l2627 054F                     i1l2619 053A                     i1l2571 04B2  
                   i1l2563 049B                     i1l2555 0486                     i1l2547 0469  
                   i1l2539 044B                     i1l2651 0591                     i1l2469 0BCB  
                   i1l2477 0CD8                     i1l2485 07EB                     i1l2493 0C25  
                   i1l2741 06DC                     i1l2733 06C5                     i1l2725 06AE  
                   i1l2717 0697                     i1l2709 0680                     i1l2661 05D9  
                   i1l2653 0595                     i1l2645 0582                     i1l2637 056B  
                   i1l2629 0555                     i1l2581 04CE                     i1l2573 04B7  
                   i1l2565 04A1                     i1l2557 048A                     i1l2549 046E  
                   i1l2479 0C51                     i1l2487 07EE                     i1l2495 0C2C  
                   i1l2751 06F9                     i1l2743 06E2                     i1l2735 06CB  
                   i1l2727 06B4                     i1l2719 069D                     i1l2671 0614  
                   i1l2655 059B                     i1l2663 05DC                     i1l2639 0571  
                   i1l2591 04EB                     i1l2575 04BD                     i1l2567 04A6  
                   i1l2559 0490                     i1l2583 04D4                     i1l2647 0587  
                   u211_20 066A                     u203_20 05E0                     i1l2489 07F2  
                   i1l2497 0BDE                     i1l2761 0715                     i1l2753 06FE  
                   i1l2745 06E7                     i1l2737 06D1                     i1l2729 06BA  
                   u211_21 0669                     i1l2681 0630                     i1l2673 0619  
                   i1l2665 05E0                     u203_21 05DF                     i1l2657 059D  
                   i1l2649 058A                     i1l2593 04F0                     i1l2585 04DD  
                   i1l2577 04C3                     i1l2569 04AC                     i1l2499 0BE1  
                   i1l2771 0732                     i1l2763 071B                     i1l2755 0704  
                   i1l2747 06ED                     i1l2739 06D6                     i1l2691 064D  
                   i1l2683 0636                     i1l2675 061F                     i1l2667 05E2  
                   i1l2659 05CB                     i1l2595 04F6                     i1l2587 04E1  
                   i1l2579 04C8                     u131_25 0F32                     i1l2781 074E  
                   i1l2773 0738                     i1l2765 0721                     i1l2757 070A  
                   i1l2749 06F3                     i1l2693 0653                     i1l2685 063C  
                   i1l2677 0625                     i1l2669 060E                     i1l2597 04FC  
                   i1l2589 04E5                     i1l2791 0775                     i1l2783 0755  
                   i1l2775 073D                     i1l2767 0727                     i1l2759 0710  
                   i1l2695 0659                     i1l2687 0642                     i1l2679 062B  
                   i1l2599 0501                     u132_20 0F40                     u220_20 06E2  
                   u212_20 067B                     u204_20 0614                     u132_21 0F3F  
                   i1l2785 075A                     i1l2777 0743                     i1l2769 072C  
                   u220_21 06E1                     u212_21 067A                     i1l2697 065E  
                   i1l2689 0647                     u204_21 0613                     i1l2793 0778  
                   i1l2787 0762                     i1l2779 0749                     i1l2699 0664  
                   i1l2789 0767                     u300_27 0BEF                     u221_20 06F3  
                   u213_20 068C                     u205_20 0625                     u221_21 06F2  
                   u213_21 068B                     u205_21 0624                     u133_25 0F41  
                   u301_27 0C27                     u134_20 0F51                     u230_20 0762  
                   u222_20 06F9                     u214_20 0692                     u206_20 062B  
                   u134_21 0F50                     u230_21 0761                     u222_21 06F8  
                   u214_21 0691                     u206_21 062A                     u134_25 0F4D  
                   u310_27 0BD9                     u302_27 0C33                     u223_20 070A  
                   u215_20 06A3                     u207_20 063C                     u223_21 0709  
                   u215_21 06A2                     u207_21 063B                     u135_25 0F59  
                   u311_27 0C10                     u303_27 07F0                     u136_20 0F65  
                   u128_20 0F12                     u224_20 0710                     u216_20 06A9  
                   u208_20 0642                     u136_21 0F64                     u128_21 0F11  
                   u224_21 070F                     u216_21 06A8                     u208_21 0641  
                   u320_27 0BC3                     u312_27 0C1C                     u304_27 07F9  
                   u137_20 0F6A                     u129_20 0F1D                     u225_20 0721  
                   u217_20 06BA                     u209_20 0653                     u137_21 0F69  
                   u129_21 0F1C                     u225_21 0720                     u217_21 06B9  
                   u209_21 0652                     u321_27 0BF9                     u313_27 0BA4  
                   u305_27 0C58                     u138_20 0E88                     u226_20 0727  
                   u218_20 06C0                     u170_20 0443                     u138_21 0E87  
                   u226_21 0726                     u218_21 06BF                     u170_21 0442  
                   u322_27 0C05                     u314_27 0BAD                     u306_27 0C64  
                   u227_20 0738                     u219_20 06D1                     u171_20 044B  
                   u227_21 0737                     u219_21 06D0                     u171_21 044A  
                   u323_27 0B91                     u315_27 0C40                     u307_27 0CD1  
                   u228_20 0749                     u180_20 04BD                     u172_20 045B  
                   u228_21 0748                     u180_21 04BC                     u172_21 045A  
                   u324_27 0B9A                     u316_27 0C4C                     u308_27 0CDF  
                   u229_20 0755                     u181_20 04C3                     u173_20 0469  
                   u229_21 0754                     u181_21 04C2                     u173_21 0468  
                   u317_27 0CB8                     u309_27 0BCD                     u190_20 051E  
                   u182_20 04CE                     u174_20 0482                     u190_21 051D  
                   u182_21 04CD                     u174_21 0481                     u318_27 0CC6  
                   u191_20 0529                     u183_20 04DD                     u175_20 0490  
                   u191_21 0528                     u183_21 04DC                     u175_21 048F  
                   u319_27 0BB7                     u192_20 0538                     u184_20 04EB  
                   u176_20 049B                     u192_21 0537                     u184_21 04EA  
                   u176_21 049A                     u193_20 0544                     u185_20 04F6  
                   u177_20 04A1                     u169_20 043A                     u193_21 0543  
                   u185_21 04F5                     u177_21 04A0                     u169_21 0439  
                   u194_20 054F                     u186_20 04FC                     u178_20 04AC  
                   u194_21 054E                     u186_21 04FB                     u178_21 04AB  
                   u195_20 0555                     u187_20 0507                     u179_20 04B2  
                   u195_21 0554                     u187_21 0506                     u179_21 04B1  
                   u196_20 0560                     u188_20 050D                     u196_21 055F  
                   u188_21 050C                     u292_27 058E                     u197_20 0566  
                   u189_20 0518                     u197_21 0565                     u189_21 0517  
                   u293_27 05D3                     u198_20 0571                     u198_21 0570  
                   u294_27 076F                     u199_20 0577                     u199_21 0576  
                   u295_27 0C70                     u296_27 0C7C                     u297_27 0CEA  
                   u298_27 0CF8                     u299_27 0BE3                     _SPBRGH 009A  
                ??___awdiv 0029          ??_escribir_eeprom 0071           ___awdiv@quotient 002C  
                   _printf 0EE5          __end_ofi1___awdiv 0F74         _estado_motor_nuevo 0035  
                ??_mensaje 0030                     saved_w 007E                  ??_motor_1 002E  
                ??_motor_2 002E          __end_ofi1_motor_1 0C9A          __end_ofi1_motor_2 0CB3  
  __end_of__initialization 0021       __size_of_leer_eeprom 0011             __pcstackCOMMON 0070  
            __end_of_setup 1000              __end_of_putch 0B6A             _OPTION_REGbits 0081  
   escribir_eeprom@address 0070                    ??_setup 0025                    ??_putch 0025  
               __pbssBANK0 0033                 __pmaintext 0B7B                 __pintentry 0004  
                  ?_printf 0026         __size_of_servo_1_1 0019         __size_of_servo_1_2 001A  
       __size_of_servo_1_3 001D         __size_of_servo_1_4 001C         __size_of_servo_1_5 001C  
       __size_of_servo_2_1 0019         __size_of_servo_2_2 001A         __size_of_servo_2_3 001D  
       __size_of_servo_2_4 001C         __size_of_servo_2_5 001C         __size_of_servo_3_1 0019  
       __size_of_servo_3_2 001A         __size_of_servo_3_3 001D         __size_of_servo_3_4 001C  
       __size_of_servo_3_5 001C         i1___awdiv@dividend 0072                 __stringtab 094A  
             ?i1_servo_1_1 0070               ?i1_servo_1_2 0070               ?i1_servo_1_3 0070  
             ?i1_servo_1_4 0070               ?i1_servo_2_1 0070               ?i1_servo_1_5 0070  
             ?i1_servo_2_2 0070               ?i1_servo_2_3 0070               ?i1_servo_2_4 0070  
             ?i1_servo_3_1 0070               ?i1_servo_2_5 0070               ?i1_servo_3_2 0070  
             ?i1_servo_3_3 0070               ?i1_servo_3_4 0070               ?i1_servo_3_5 0070  
       i1___awdiv@quotient 0077                    ___awdiv 0782          ?i1_motor_detenido 0070  
                _ANSELbits 0188    __size_of_motor_detenido 0006                    __ptext1 0F74  
                  __ptext2 0025                    __ptext3 0E55                    __ptext4 0E39  
                  __ptext5 0EC8                    __ptext6 0DAF                    __ptext7 0D62  
                  __ptext8 0E1D                    __ptext9 0E01            __size_of_printf 0028  
       ??i1_motor_detenido 0070                  _T2CONbits 0012               __size_of_isr 034C  
                  _mensaje 0025                 _pot2_nuevo 0039                    _motor_1 0CFE  
                  _motor_2 0D17                 _pot3_nuevo 0038                 _pot4_nuevo 0037  
     end_of_initialization 0021            _escribir_eeprom 0E71          __end_of_servo_1_1 0D49  
        __end_of_servo_1_2 0D95          __end_of_servo_1_3 0EAB          __end_of_servo_1_4 0DE5  
        __end_of_servo_1_5 0E01          __end_of_servo_2_1 0D62          __end_of_servo_2_2 0DAF  
        __end_of_servo_2_3 0EC8          __end_of_servo_2_4 0E1D          __end_of_servo_2_5 0E39  
        __end_of_servo_3_1 0D7B          __end_of_servo_3_2 0DC9          __end_of_servo_3_3 0EE5  
        __end_of_servo_3_4 0E55          __end_of_servo_3_5 0E71                  _RCSTAbits 0018  
                  printf@c 002C                    printf@f 0026               __pstringtext 0800  
                _TRISAbits 0085                  _TRISBbits 0086                  _TRISCbits 0087  
                _TRISDbits 0088                  _TRISEbits 0089                  i1___awdiv 0F0D  
              _CCP1CONbits 0017                _CCP2CONbits 001D                  _TXSTAbits 0098  
                i1_motor_1 0C81                  i1_motor_2 0C9A                _BAUDCTLbits 0187  
           __end_of_printf 0F0D        start_initialization 0011                __end_of_isr 0782  
               ?i1___awdiv 0070    __end_of_escribir_eeprom 0E8E              ??_leer_eeprom 0070  
               ?i1_motor_1 0070                 ?i1_motor_2 0070       __size_ofi1_servo_1_1 0013  
     __size_ofi1_servo_1_2 0017       __size_ofi1_servo_1_3 0016       __size_ofi1_servo_1_4 0019  
     __size_ofi1_servo_1_5 0018       __size_ofi1_servo_2_1 0013       __size_ofi1_servo_2_2 0017  
     __size_ofi1_servo_2_3 0016       __size_ofi1_servo_2_4 0019       __size_ofi1_servo_2_5 0018  
     __size_ofi1_servo_3_1 0013       __size_ofi1_servo_3_2 0017       __size_ofi1_servo_3_3 0016  
     __size_ofi1_servo_3_4 0019       __size_ofi1_servo_3_5 0018             _motor_detenido 0B5A  
                 ??_printf 0028               _estado_motor 0036                __pbssCOMMON 007B  
                ___latbits 0002              __pcstackBANK0 0020        __end_of_leer_eeprom 0B7B  
   __end_of_motor_detenido 0B60                   ?___awdiv 0025                  _direccion 003C  
        i1___awdiv@divisor 0070          i1___awdiv@counter 0075                  __pstrings 094A  
                 ?_mensaje 0070                   ?_motor_1 0070                   ?_motor_2 0070  
              ??i1___awdiv 0074           ?_escribir_eeprom 0070             __size_of_setup 008C  
           __size_of_putch 000A  __size_ofi1_motor_detenido 0006          interrupt_function 0004  
                 _IOCBbits 0096                   _PIE1bits 008C                ??i1_motor_1 0079  
              ??i1_motor_2 0079                   _PIR1bits 000C                   _PIR2bits 000D  
                _servo_1_1 0D30                  _servo_1_2 0D7B                  _servo_1_3 0E8E  
                _servo_1_4 0DC9                  _servo_2_1 0D49                  _servo_1_5 0DE5  
                _servo_2_2 0D95                  _servo_2_3 0EAB                  _servo_2_4 0E01  
                _servo_3_1 0D62                  _servo_2_5 0E1D                  _servo_3_2 0DAF  
                _servo_3_3 0EC8                  _servo_3_4 0E39                  _servo_3_5 0E55  
       leer_eeprom@address 0071            ?_motor_detenido 0070                 _ADCON0bits 001F  
              __stringbase 095C                 _ADCON1bits 009F                   _WPUBbits 0095  
              _leer_eeprom 0B6A        escribir_eeprom@data 0071                 _EECON1bits 018C  
               ?_servo_1_1 0070                 ?_servo_1_2 0070                 ?_servo_1_3 0070  
               ?_servo_1_4 0070                 ?_servo_2_1 0070                 ?_servo_1_5 0070  
               ?_servo_2_2 0070                 ?_servo_2_3 0070                 ?_servo_2_4 0070  
               ?_servo_3_1 0070                 ?_servo_2_5 0070                 ?_servo_3_2 0070  
               ?_servo_3_3 0070                 ?_servo_3_4 0070                 ?_servo_3_5 0070  
         __size_of___awdiv 0069         __end_of__stringtab 095C           __size_of_mensaje 0411  
                 __ptext10 0EAB                   __ptext11 0D95                   __ptext20 0B5A  
                 __ptext12 0D49                   __ptext21 0D17                   __ptext13 0DE5  
                 __ptext30 0C51                   __ptext22 0CFE                   __ptext14 0DC9  
                 __ptext31 0CCC                   __ptext23 0782                   __ptext15 0E8E  
                 __ptext40 0B54                   __ptext32 0BC8                   __ptext24 0436  
                 __ptext16 0D7B                   __ptext41 0C9A                   __ptext33 0C0B  
                 __ptext25 0C69                   __ptext17 0D30                   __ptext42 0C81  
                 __ptext34 0B9F                   __ptext26 0CE5                   __ptext18 0EE5  
                 __ptext43 0F0D                   __ptext35 0C39                   __ptext27 0BDE  
                 __ptext19 0B60                   __ptext44 0B6A                   __ptext36 0CB3  
                 __ptext28 0C22                   __ptext45 0E71                   __ptext37 0BB2  
                 __ptext29 07EB                   __ptext38 0BF4                   __ptext39 0B8C  
         __size_of_motor_1 0019           __size_of_motor_2 0019                   _contador 003B  
            __size_of_main 0011                   _puerto_a 0034                   _puerto_b 0033  
                putch@dato 0025                 _INTCONbits 000B           i1_motor_detenido 0B54  
                 intlevel1 0000              ??i1_servo_1_1 0070              ??i1_servo_1_2 0070  
            ??i1_servo_1_3 0070              ??i1_servo_1_4 0070              ??i1_servo_2_1 0070  
            ??i1_servo_1_5 0070              ??i1_servo_2_2 0070              ??i1_servo_2_3 0070  
            ??i1_servo_2_4 0070              ??i1_servo_3_1 0070              ??i1_servo_2_5 0070  
            ??i1_servo_3_2 0070              ??i1_servo_3_3 0070              ??i1_servo_3_4 0070  
            ??i1_servo_3_5 0070                  stringcode 0954                 _OSCCONbits 008F  
              ??_servo_1_1 0025                ??_servo_1_2 0025                ??_servo_1_3 0025  
              ??_servo_1_4 0025                ??_servo_2_1 0025                ??_servo_1_5 0025  
              ??_servo_2_2 0025                ??_servo_2_3 0025                ??_servo_2_4 0025  
              ??_servo_3_1 0025                ??_servo_2_5 0025                ??_servo_3_2 0025  
              ??_servo_3_3 0025                ??_servo_3_4 0025                ??_servo_3_5 0025  
                 printf@ap 002B                   stringtab 094A            leer_eeprom@data 0072  
         ??_motor_detenido 0025  
